
Firefighter-Robot_Code.axf:     file format elf32-littlearm

Sections:
Idx Name          Size      VMA       LMA       File off  Algn
  0 .isr_vector   00000130  08000000  08000000  00010000  2**0
                  CONTENTS, ALLOC, LOAD, READONLY, DATA
  1 .text         00001fc8  08000130  08000130  00010130  2**3
                  CONTENTS, ALLOC, LOAD, READONLY, CODE
  2 .rodata       00000000  080020f8  080020f8  00020004  2**0
                  CONTENTS, ALLOC, LOAD, DATA
  3 .ARM.extab    00000000  080020f8  080020f8  00020004  2**0
                  CONTENTS
  4 .ARM          00000000  080020f8  080020f8  00020004  2**0
                  CONTENTS
  5 .preinit_array 00000000  080020f8  080020f8  00020004  2**0
                  CONTENTS, ALLOC, LOAD, DATA
  6 .init_array   00000004  080020f8  080020f8  000120f8  2**2
                  CONTENTS, ALLOC, LOAD, DATA
  7 .fini_array   00000004  080020fc  080020fc  000120fc  2**2
                  CONTENTS, ALLOC, LOAD, DATA
  8 .data         00000004  20000000  08002100  00020000  2**2
                  CONTENTS, ALLOC, LOAD, DATA
  9 .bss          000000d4  20000004  08002104  00020004  2**2
                  ALLOC
 10 ._user_heap_stack 00000600  200000d8  08002104  000200d8  2**0
                  ALLOC
 11 .ARM.attributes 00000029  00000000  00000000  00020004  2**0
                  CONTENTS, READONLY
 12 .debug_info   00003b00  00000000  00000000  0002002d  2**0
                  CONTENTS, READONLY, DEBUGGING, OCTETS
 13 .debug_abbrev 0000121c  00000000  00000000  00023b2d  2**0
                  CONTENTS, READONLY, DEBUGGING, OCTETS
 14 .debug_loc    00001a3c  00000000  00000000  00024d49  2**0
                  CONTENTS, READONLY, DEBUGGING, OCTETS
 15 .debug_aranges 00000420  00000000  00000000  00026788  2**3
                  CONTENTS, READONLY, DEBUGGING, OCTETS
 16 .debug_ranges 00000358  00000000  00000000  00026ba8  2**3
                  CONTENTS, READONLY, DEBUGGING, OCTETS
 17 .debug_macro  00004006  00000000  00000000  00026f00  2**0
                  CONTENTS, READONLY, DEBUGGING, OCTETS
 18 .debug_line   00005e4f  00000000  00000000  0002af06  2**0
                  CONTENTS, READONLY, DEBUGGING, OCTETS
 19 .debug_str    0000dd33  00000000  00000000  00030d55  2**0
                  CONTENTS, READONLY, DEBUGGING, OCTETS
 20 .comment      00000050  00000000  00000000  0003ea88  2**0
                  CONTENTS, READONLY
 21 .debug_frame  00000fb8  00000000  00000000  0003ead8  2**2
                  CONTENTS, READONLY, DEBUGGING, OCTETS

Disassembly of section .text:

08000130 <__do_global_dtors_aux>:
 8000130:	b510      	push	{r4, lr}
 8000132:	4c05      	ldr	r4, [pc, #20]	; (8000148 <__do_global_dtors_aux+0x18>)
 8000134:	7823      	ldrb	r3, [r4, #0]
 8000136:	b933      	cbnz	r3, 8000146 <__do_global_dtors_aux+0x16>
 8000138:	4b04      	ldr	r3, [pc, #16]	; (800014c <__do_global_dtors_aux+0x1c>)
 800013a:	b113      	cbz	r3, 8000142 <__do_global_dtors_aux+0x12>
 800013c:	4804      	ldr	r0, [pc, #16]	; (8000150 <__do_global_dtors_aux+0x20>)
 800013e:	f3af 8000 	nop.w
 8000142:	2301      	movs	r3, #1
 8000144:	7023      	strb	r3, [r4, #0]
 8000146:	bd10      	pop	{r4, pc}
 8000148:	20000004 	.word	0x20000004
 800014c:	00000000 	.word	0x00000000
 8000150:	080020e0 	.word	0x080020e0

08000154 <frame_dummy>:
 8000154:	b508      	push	{r3, lr}
 8000156:	4b03      	ldr	r3, [pc, #12]	; (8000164 <frame_dummy+0x10>)
 8000158:	b11b      	cbz	r3, 8000162 <frame_dummy+0xe>
 800015a:	4903      	ldr	r1, [pc, #12]	; (8000168 <frame_dummy+0x14>)
 800015c:	4803      	ldr	r0, [pc, #12]	; (800016c <frame_dummy+0x18>)
 800015e:	f3af 8000 	nop.w
 8000162:	bd08      	pop	{r3, pc}
 8000164:	00000000 	.word	0x00000000
 8000168:	20000008 	.word	0x20000008
 800016c:	080020e0 	.word	0x080020e0

08000170 <__aeabi_drsub>:
 8000170:	f081 4100 	eor.w	r1, r1, #2147483648	; 0x80000000
 8000174:	e002      	b.n	800017c <__adddf3>
 8000176:	bf00      	nop

08000178 <__aeabi_dsub>:
 8000178:	f083 4300 	eor.w	r3, r3, #2147483648	; 0x80000000

0800017c <__adddf3>:
 800017c:	b530      	push	{r4, r5, lr}
 800017e:	ea4f 0441 	mov.w	r4, r1, lsl #1
 8000182:	ea4f 0543 	mov.w	r5, r3, lsl #1
 8000186:	ea94 0f05 	teq	r4, r5
 800018a:	bf08      	it	eq
 800018c:	ea90 0f02 	teqeq	r0, r2
 8000190:	bf1f      	itttt	ne
 8000192:	ea54 0c00 	orrsne.w	ip, r4, r0
 8000196:	ea55 0c02 	orrsne.w	ip, r5, r2
 800019a:	ea7f 5c64 	mvnsne.w	ip, r4, asr #21
 800019e:	ea7f 5c65 	mvnsne.w	ip, r5, asr #21
 80001a2:	f000 80e2 	beq.w	800036a <__adddf3+0x1ee>
 80001a6:	ea4f 5454 	mov.w	r4, r4, lsr #21
 80001aa:	ebd4 5555 	rsbs	r5, r4, r5, lsr #21
 80001ae:	bfb8      	it	lt
 80001b0:	426d      	neglt	r5, r5
 80001b2:	dd0c      	ble.n	80001ce <__adddf3+0x52>
 80001b4:	442c      	add	r4, r5
 80001b6:	ea80 0202 	eor.w	r2, r0, r2
 80001ba:	ea81 0303 	eor.w	r3, r1, r3
 80001be:	ea82 0000 	eor.w	r0, r2, r0
 80001c2:	ea83 0101 	eor.w	r1, r3, r1
 80001c6:	ea80 0202 	eor.w	r2, r0, r2
 80001ca:	ea81 0303 	eor.w	r3, r1, r3
 80001ce:	2d36      	cmp	r5, #54	; 0x36
 80001d0:	bf88      	it	hi
 80001d2:	bd30      	pophi	{r4, r5, pc}
 80001d4:	f011 4f00 	tst.w	r1, #2147483648	; 0x80000000
 80001d8:	ea4f 3101 	mov.w	r1, r1, lsl #12
 80001dc:	f44f 1c80 	mov.w	ip, #1048576	; 0x100000
 80001e0:	ea4c 3111 	orr.w	r1, ip, r1, lsr #12
 80001e4:	d002      	beq.n	80001ec <__adddf3+0x70>
 80001e6:	4240      	negs	r0, r0
 80001e8:	eb61 0141 	sbc.w	r1, r1, r1, lsl #1
 80001ec:	f013 4f00 	tst.w	r3, #2147483648	; 0x80000000
 80001f0:	ea4f 3303 	mov.w	r3, r3, lsl #12
 80001f4:	ea4c 3313 	orr.w	r3, ip, r3, lsr #12
 80001f8:	d002      	beq.n	8000200 <__adddf3+0x84>
 80001fa:	4252      	negs	r2, r2
 80001fc:	eb63 0343 	sbc.w	r3, r3, r3, lsl #1
 8000200:	ea94 0f05 	teq	r4, r5
 8000204:	f000 80a7 	beq.w	8000356 <__adddf3+0x1da>
 8000208:	f1a4 0401 	sub.w	r4, r4, #1
 800020c:	f1d5 0e20 	rsbs	lr, r5, #32
 8000210:	db0d      	blt.n	800022e <__adddf3+0xb2>
 8000212:	fa02 fc0e 	lsl.w	ip, r2, lr
 8000216:	fa22 f205 	lsr.w	r2, r2, r5
 800021a:	1880      	adds	r0, r0, r2
 800021c:	f141 0100 	adc.w	r1, r1, #0
 8000220:	fa03 f20e 	lsl.w	r2, r3, lr
 8000224:	1880      	adds	r0, r0, r2
 8000226:	fa43 f305 	asr.w	r3, r3, r5
 800022a:	4159      	adcs	r1, r3
 800022c:	e00e      	b.n	800024c <__adddf3+0xd0>
 800022e:	f1a5 0520 	sub.w	r5, r5, #32
 8000232:	f10e 0e20 	add.w	lr, lr, #32
 8000236:	2a01      	cmp	r2, #1
 8000238:	fa03 fc0e 	lsl.w	ip, r3, lr
 800023c:	bf28      	it	cs
 800023e:	f04c 0c02 	orrcs.w	ip, ip, #2
 8000242:	fa43 f305 	asr.w	r3, r3, r5
 8000246:	18c0      	adds	r0, r0, r3
 8000248:	eb51 71e3 	adcs.w	r1, r1, r3, asr #31
 800024c:	f001 4500 	and.w	r5, r1, #2147483648	; 0x80000000
 8000250:	d507      	bpl.n	8000262 <__adddf3+0xe6>
 8000252:	f04f 0e00 	mov.w	lr, #0
 8000256:	f1dc 0c00 	rsbs	ip, ip, #0
 800025a:	eb7e 0000 	sbcs.w	r0, lr, r0
 800025e:	eb6e 0101 	sbc.w	r1, lr, r1
 8000262:	f5b1 1f80 	cmp.w	r1, #1048576	; 0x100000
 8000266:	d31b      	bcc.n	80002a0 <__adddf3+0x124>
 8000268:	f5b1 1f00 	cmp.w	r1, #2097152	; 0x200000
 800026c:	d30c      	bcc.n	8000288 <__adddf3+0x10c>
 800026e:	0849      	lsrs	r1, r1, #1
 8000270:	ea5f 0030 	movs.w	r0, r0, rrx
 8000274:	ea4f 0c3c 	mov.w	ip, ip, rrx
 8000278:	f104 0401 	add.w	r4, r4, #1
 800027c:	ea4f 5244 	mov.w	r2, r4, lsl #21
 8000280:	f512 0f80 	cmn.w	r2, #4194304	; 0x400000
 8000284:	f080 809a 	bcs.w	80003bc <__adddf3+0x240>
 8000288:	f1bc 4f00 	cmp.w	ip, #2147483648	; 0x80000000
 800028c:	bf08      	it	eq
 800028e:	ea5f 0c50 	movseq.w	ip, r0, lsr #1
 8000292:	f150 0000 	adcs.w	r0, r0, #0
 8000296:	eb41 5104 	adc.w	r1, r1, r4, lsl #20
 800029a:	ea41 0105 	orr.w	r1, r1, r5
 800029e:	bd30      	pop	{r4, r5, pc}
 80002a0:	ea5f 0c4c 	movs.w	ip, ip, lsl #1
 80002a4:	4140      	adcs	r0, r0
 80002a6:	eb41 0101 	adc.w	r1, r1, r1
 80002aa:	3c01      	subs	r4, #1
 80002ac:	bf28      	it	cs
 80002ae:	f5b1 1f80 	cmpcs.w	r1, #1048576	; 0x100000
 80002b2:	d2e9      	bcs.n	8000288 <__adddf3+0x10c>
 80002b4:	f091 0f00 	teq	r1, #0
 80002b8:	bf04      	itt	eq
 80002ba:	4601      	moveq	r1, r0
 80002bc:	2000      	moveq	r0, #0
 80002be:	fab1 f381 	clz	r3, r1
 80002c2:	bf08      	it	eq
 80002c4:	3320      	addeq	r3, #32
 80002c6:	f1a3 030b 	sub.w	r3, r3, #11
 80002ca:	f1b3 0220 	subs.w	r2, r3, #32
 80002ce:	da0c      	bge.n	80002ea <__adddf3+0x16e>
 80002d0:	320c      	adds	r2, #12
 80002d2:	dd08      	ble.n	80002e6 <__adddf3+0x16a>
 80002d4:	f102 0c14 	add.w	ip, r2, #20
 80002d8:	f1c2 020c 	rsb	r2, r2, #12
 80002dc:	fa01 f00c 	lsl.w	r0, r1, ip
 80002e0:	fa21 f102 	lsr.w	r1, r1, r2
 80002e4:	e00c      	b.n	8000300 <__adddf3+0x184>
 80002e6:	f102 0214 	add.w	r2, r2, #20
 80002ea:	bfd8      	it	le
 80002ec:	f1c2 0c20 	rsble	ip, r2, #32
 80002f0:	fa01 f102 	lsl.w	r1, r1, r2
 80002f4:	fa20 fc0c 	lsr.w	ip, r0, ip
 80002f8:	bfdc      	itt	le
 80002fa:	ea41 010c 	orrle.w	r1, r1, ip
 80002fe:	4090      	lslle	r0, r2
 8000300:	1ae4      	subs	r4, r4, r3
 8000302:	bfa2      	ittt	ge
 8000304:	eb01 5104 	addge.w	r1, r1, r4, lsl #20
 8000308:	4329      	orrge	r1, r5
 800030a:	bd30      	popge	{r4, r5, pc}
 800030c:	ea6f 0404 	mvn.w	r4, r4
 8000310:	3c1f      	subs	r4, #31
 8000312:	da1c      	bge.n	800034e <__adddf3+0x1d2>
 8000314:	340c      	adds	r4, #12
 8000316:	dc0e      	bgt.n	8000336 <__adddf3+0x1ba>
 8000318:	f104 0414 	add.w	r4, r4, #20
 800031c:	f1c4 0220 	rsb	r2, r4, #32
 8000320:	fa20 f004 	lsr.w	r0, r0, r4
 8000324:	fa01 f302 	lsl.w	r3, r1, r2
 8000328:	ea40 0003 	orr.w	r0, r0, r3
 800032c:	fa21 f304 	lsr.w	r3, r1, r4
 8000330:	ea45 0103 	orr.w	r1, r5, r3
 8000334:	bd30      	pop	{r4, r5, pc}
 8000336:	f1c4 040c 	rsb	r4, r4, #12
 800033a:	f1c4 0220 	rsb	r2, r4, #32
 800033e:	fa20 f002 	lsr.w	r0, r0, r2
 8000342:	fa01 f304 	lsl.w	r3, r1, r4
 8000346:	ea40 0003 	orr.w	r0, r0, r3
 800034a:	4629      	mov	r1, r5
 800034c:	bd30      	pop	{r4, r5, pc}
 800034e:	fa21 f004 	lsr.w	r0, r1, r4
 8000352:	4629      	mov	r1, r5
 8000354:	bd30      	pop	{r4, r5, pc}
 8000356:	f094 0f00 	teq	r4, #0
 800035a:	f483 1380 	eor.w	r3, r3, #1048576	; 0x100000
 800035e:	bf06      	itte	eq
 8000360:	f481 1180 	eoreq.w	r1, r1, #1048576	; 0x100000
 8000364:	3401      	addeq	r4, #1
 8000366:	3d01      	subne	r5, #1
 8000368:	e74e      	b.n	8000208 <__adddf3+0x8c>
 800036a:	ea7f 5c64 	mvns.w	ip, r4, asr #21
 800036e:	bf18      	it	ne
 8000370:	ea7f 5c65 	mvnsne.w	ip, r5, asr #21
 8000374:	d029      	beq.n	80003ca <__adddf3+0x24e>
 8000376:	ea94 0f05 	teq	r4, r5
 800037a:	bf08      	it	eq
 800037c:	ea90 0f02 	teqeq	r0, r2
 8000380:	d005      	beq.n	800038e <__adddf3+0x212>
 8000382:	ea54 0c00 	orrs.w	ip, r4, r0
 8000386:	bf04      	itt	eq
 8000388:	4619      	moveq	r1, r3
 800038a:	4610      	moveq	r0, r2
 800038c:	bd30      	pop	{r4, r5, pc}
 800038e:	ea91 0f03 	teq	r1, r3
 8000392:	bf1e      	ittt	ne
 8000394:	2100      	movne	r1, #0
 8000396:	2000      	movne	r0, #0
 8000398:	bd30      	popne	{r4, r5, pc}
 800039a:	ea5f 5c54 	movs.w	ip, r4, lsr #21
 800039e:	d105      	bne.n	80003ac <__adddf3+0x230>
 80003a0:	0040      	lsls	r0, r0, #1
 80003a2:	4149      	adcs	r1, r1
 80003a4:	bf28      	it	cs
 80003a6:	f041 4100 	orrcs.w	r1, r1, #2147483648	; 0x80000000
 80003aa:	bd30      	pop	{r4, r5, pc}
 80003ac:	f514 0480 	adds.w	r4, r4, #4194304	; 0x400000
 80003b0:	bf3c      	itt	cc
 80003b2:	f501 1180 	addcc.w	r1, r1, #1048576	; 0x100000
 80003b6:	bd30      	popcc	{r4, r5, pc}
 80003b8:	f001 4500 	and.w	r5, r1, #2147483648	; 0x80000000
 80003bc:	f045 41fe 	orr.w	r1, r5, #2130706432	; 0x7f000000
 80003c0:	f441 0170 	orr.w	r1, r1, #15728640	; 0xf00000
 80003c4:	f04f 0000 	mov.w	r0, #0
 80003c8:	bd30      	pop	{r4, r5, pc}
 80003ca:	ea7f 5c64 	mvns.w	ip, r4, asr #21
 80003ce:	bf1a      	itte	ne
 80003d0:	4619      	movne	r1, r3
 80003d2:	4610      	movne	r0, r2
 80003d4:	ea7f 5c65 	mvnseq.w	ip, r5, asr #21
 80003d8:	bf1c      	itt	ne
 80003da:	460b      	movne	r3, r1
 80003dc:	4602      	movne	r2, r0
 80003de:	ea50 3401 	orrs.w	r4, r0, r1, lsl #12
 80003e2:	bf06      	itte	eq
 80003e4:	ea52 3503 	orrseq.w	r5, r2, r3, lsl #12
 80003e8:	ea91 0f03 	teqeq	r1, r3
 80003ec:	f441 2100 	orrne.w	r1, r1, #524288	; 0x80000
 80003f0:	bd30      	pop	{r4, r5, pc}
 80003f2:	bf00      	nop

080003f4 <__aeabi_ui2d>:
 80003f4:	f090 0f00 	teq	r0, #0
 80003f8:	bf04      	itt	eq
 80003fa:	2100      	moveq	r1, #0
 80003fc:	4770      	bxeq	lr
 80003fe:	b530      	push	{r4, r5, lr}
 8000400:	f44f 6480 	mov.w	r4, #1024	; 0x400
 8000404:	f104 0432 	add.w	r4, r4, #50	; 0x32
 8000408:	f04f 0500 	mov.w	r5, #0
 800040c:	f04f 0100 	mov.w	r1, #0
 8000410:	e750      	b.n	80002b4 <__adddf3+0x138>
 8000412:	bf00      	nop

08000414 <__aeabi_i2d>:
 8000414:	f090 0f00 	teq	r0, #0
 8000418:	bf04      	itt	eq
 800041a:	2100      	moveq	r1, #0
 800041c:	4770      	bxeq	lr
 800041e:	b530      	push	{r4, r5, lr}
 8000420:	f44f 6480 	mov.w	r4, #1024	; 0x400
 8000424:	f104 0432 	add.w	r4, r4, #50	; 0x32
 8000428:	f010 4500 	ands.w	r5, r0, #2147483648	; 0x80000000
 800042c:	bf48      	it	mi
 800042e:	4240      	negmi	r0, r0
 8000430:	f04f 0100 	mov.w	r1, #0
 8000434:	e73e      	b.n	80002b4 <__adddf3+0x138>
 8000436:	bf00      	nop

08000438 <__aeabi_f2d>:
 8000438:	0042      	lsls	r2, r0, #1
 800043a:	ea4f 01e2 	mov.w	r1, r2, asr #3
 800043e:	ea4f 0131 	mov.w	r1, r1, rrx
 8000442:	ea4f 7002 	mov.w	r0, r2, lsl #28
 8000446:	bf1f      	itttt	ne
 8000448:	f012 437f 	andsne.w	r3, r2, #4278190080	; 0xff000000
 800044c:	f093 4f7f 	teqne	r3, #4278190080	; 0xff000000
 8000450:	f081 5160 	eorne.w	r1, r1, #939524096	; 0x38000000
 8000454:	4770      	bxne	lr
 8000456:	f032 427f 	bics.w	r2, r2, #4278190080	; 0xff000000
 800045a:	bf08      	it	eq
 800045c:	4770      	bxeq	lr
 800045e:	f093 4f7f 	teq	r3, #4278190080	; 0xff000000
 8000462:	bf04      	itt	eq
 8000464:	f441 2100 	orreq.w	r1, r1, #524288	; 0x80000
 8000468:	4770      	bxeq	lr
 800046a:	b530      	push	{r4, r5, lr}
 800046c:	f44f 7460 	mov.w	r4, #896	; 0x380
 8000470:	f001 4500 	and.w	r5, r1, #2147483648	; 0x80000000
 8000474:	f021 4100 	bic.w	r1, r1, #2147483648	; 0x80000000
 8000478:	e71c      	b.n	80002b4 <__adddf3+0x138>
 800047a:	bf00      	nop

0800047c <__aeabi_ul2d>:
 800047c:	ea50 0201 	orrs.w	r2, r0, r1
 8000480:	bf08      	it	eq
 8000482:	4770      	bxeq	lr
 8000484:	b530      	push	{r4, r5, lr}
 8000486:	f04f 0500 	mov.w	r5, #0
 800048a:	e00a      	b.n	80004a2 <__aeabi_l2d+0x16>

0800048c <__aeabi_l2d>:
 800048c:	ea50 0201 	orrs.w	r2, r0, r1
 8000490:	bf08      	it	eq
 8000492:	4770      	bxeq	lr
 8000494:	b530      	push	{r4, r5, lr}
 8000496:	f011 4500 	ands.w	r5, r1, #2147483648	; 0x80000000
 800049a:	d502      	bpl.n	80004a2 <__aeabi_l2d+0x16>
 800049c:	4240      	negs	r0, r0
 800049e:	eb61 0141 	sbc.w	r1, r1, r1, lsl #1
 80004a2:	f44f 6480 	mov.w	r4, #1024	; 0x400
 80004a6:	f104 0432 	add.w	r4, r4, #50	; 0x32
 80004aa:	ea5f 5c91 	movs.w	ip, r1, lsr #22
 80004ae:	f43f aed8 	beq.w	8000262 <__adddf3+0xe6>
 80004b2:	f04f 0203 	mov.w	r2, #3
 80004b6:	ea5f 0cdc 	movs.w	ip, ip, lsr #3
 80004ba:	bf18      	it	ne
 80004bc:	3203      	addne	r2, #3
 80004be:	ea5f 0cdc 	movs.w	ip, ip, lsr #3
 80004c2:	bf18      	it	ne
 80004c4:	3203      	addne	r2, #3
 80004c6:	eb02 02dc 	add.w	r2, r2, ip, lsr #3
 80004ca:	f1c2 0320 	rsb	r3, r2, #32
 80004ce:	fa00 fc03 	lsl.w	ip, r0, r3
 80004d2:	fa20 f002 	lsr.w	r0, r0, r2
 80004d6:	fa01 fe03 	lsl.w	lr, r1, r3
 80004da:	ea40 000e 	orr.w	r0, r0, lr
 80004de:	fa21 f102 	lsr.w	r1, r1, r2
 80004e2:	4414      	add	r4, r2
 80004e4:	e6bd      	b.n	8000262 <__adddf3+0xe6>
 80004e6:	bf00      	nop

080004e8 <__aeabi_dmul>:
 80004e8:	b570      	push	{r4, r5, r6, lr}
 80004ea:	f04f 0cff 	mov.w	ip, #255	; 0xff
 80004ee:	f44c 6ce0 	orr.w	ip, ip, #1792	; 0x700
 80004f2:	ea1c 5411 	ands.w	r4, ip, r1, lsr #20
 80004f6:	bf1d      	ittte	ne
 80004f8:	ea1c 5513 	andsne.w	r5, ip, r3, lsr #20
 80004fc:	ea94 0f0c 	teqne	r4, ip
 8000500:	ea95 0f0c 	teqne	r5, ip
 8000504:	f000 f8de 	bleq	80006c4 <__aeabi_dmul+0x1dc>
 8000508:	442c      	add	r4, r5
 800050a:	ea81 0603 	eor.w	r6, r1, r3
 800050e:	ea21 514c 	bic.w	r1, r1, ip, lsl #21
 8000512:	ea23 534c 	bic.w	r3, r3, ip, lsl #21
 8000516:	ea50 3501 	orrs.w	r5, r0, r1, lsl #12
 800051a:	bf18      	it	ne
 800051c:	ea52 3503 	orrsne.w	r5, r2, r3, lsl #12
 8000520:	f441 1180 	orr.w	r1, r1, #1048576	; 0x100000
 8000524:	f443 1380 	orr.w	r3, r3, #1048576	; 0x100000
 8000528:	d038      	beq.n	800059c <__aeabi_dmul+0xb4>
 800052a:	fba0 ce02 	umull	ip, lr, r0, r2
 800052e:	f04f 0500 	mov.w	r5, #0
 8000532:	fbe1 e502 	umlal	lr, r5, r1, r2
 8000536:	f006 4200 	and.w	r2, r6, #2147483648	; 0x80000000
 800053a:	fbe0 e503 	umlal	lr, r5, r0, r3
 800053e:	f04f 0600 	mov.w	r6, #0
 8000542:	fbe1 5603 	umlal	r5, r6, r1, r3
 8000546:	f09c 0f00 	teq	ip, #0
 800054a:	bf18      	it	ne
 800054c:	f04e 0e01 	orrne.w	lr, lr, #1
 8000550:	f1a4 04ff 	sub.w	r4, r4, #255	; 0xff
 8000554:	f5b6 7f00 	cmp.w	r6, #512	; 0x200
 8000558:	f564 7440 	sbc.w	r4, r4, #768	; 0x300
 800055c:	d204      	bcs.n	8000568 <__aeabi_dmul+0x80>
 800055e:	ea5f 0e4e 	movs.w	lr, lr, lsl #1
 8000562:	416d      	adcs	r5, r5
 8000564:	eb46 0606 	adc.w	r6, r6, r6
 8000568:	ea42 21c6 	orr.w	r1, r2, r6, lsl #11
 800056c:	ea41 5155 	orr.w	r1, r1, r5, lsr #21
 8000570:	ea4f 20c5 	mov.w	r0, r5, lsl #11
 8000574:	ea40 505e 	orr.w	r0, r0, lr, lsr #21
 8000578:	ea4f 2ece 	mov.w	lr, lr, lsl #11
 800057c:	f1b4 0cfd 	subs.w	ip, r4, #253	; 0xfd
 8000580:	bf88      	it	hi
 8000582:	f5bc 6fe0 	cmphi.w	ip, #1792	; 0x700
 8000586:	d81e      	bhi.n	80005c6 <__aeabi_dmul+0xde>
 8000588:	f1be 4f00 	cmp.w	lr, #2147483648	; 0x80000000
 800058c:	bf08      	it	eq
 800058e:	ea5f 0e50 	movseq.w	lr, r0, lsr #1
 8000592:	f150 0000 	adcs.w	r0, r0, #0
 8000596:	eb41 5104 	adc.w	r1, r1, r4, lsl #20
 800059a:	bd70      	pop	{r4, r5, r6, pc}
 800059c:	f006 4600 	and.w	r6, r6, #2147483648	; 0x80000000
 80005a0:	ea46 0101 	orr.w	r1, r6, r1
 80005a4:	ea40 0002 	orr.w	r0, r0, r2
 80005a8:	ea81 0103 	eor.w	r1, r1, r3
 80005ac:	ebb4 045c 	subs.w	r4, r4, ip, lsr #1
 80005b0:	bfc2      	ittt	gt
 80005b2:	ebd4 050c 	rsbsgt	r5, r4, ip
 80005b6:	ea41 5104 	orrgt.w	r1, r1, r4, lsl #20
 80005ba:	bd70      	popgt	{r4, r5, r6, pc}
 80005bc:	f441 1180 	orr.w	r1, r1, #1048576	; 0x100000
 80005c0:	f04f 0e00 	mov.w	lr, #0
 80005c4:	3c01      	subs	r4, #1
 80005c6:	f300 80ab 	bgt.w	8000720 <__aeabi_dmul+0x238>
 80005ca:	f114 0f36 	cmn.w	r4, #54	; 0x36
 80005ce:	bfde      	ittt	le
 80005d0:	2000      	movle	r0, #0
 80005d2:	f001 4100 	andle.w	r1, r1, #2147483648	; 0x80000000
 80005d6:	bd70      	pople	{r4, r5, r6, pc}
 80005d8:	f1c4 0400 	rsb	r4, r4, #0
 80005dc:	3c20      	subs	r4, #32
 80005de:	da35      	bge.n	800064c <__aeabi_dmul+0x164>
 80005e0:	340c      	adds	r4, #12
 80005e2:	dc1b      	bgt.n	800061c <__aeabi_dmul+0x134>
 80005e4:	f104 0414 	add.w	r4, r4, #20
 80005e8:	f1c4 0520 	rsb	r5, r4, #32
 80005ec:	fa00 f305 	lsl.w	r3, r0, r5
 80005f0:	fa20 f004 	lsr.w	r0, r0, r4
 80005f4:	fa01 f205 	lsl.w	r2, r1, r5
 80005f8:	ea40 0002 	orr.w	r0, r0, r2
 80005fc:	f001 4200 	and.w	r2, r1, #2147483648	; 0x80000000
 8000600:	f021 4100 	bic.w	r1, r1, #2147483648	; 0x80000000
 8000604:	eb10 70d3 	adds.w	r0, r0, r3, lsr #31
 8000608:	fa21 f604 	lsr.w	r6, r1, r4
 800060c:	eb42 0106 	adc.w	r1, r2, r6
 8000610:	ea5e 0e43 	orrs.w	lr, lr, r3, lsl #1
 8000614:	bf08      	it	eq
 8000616:	ea20 70d3 	biceq.w	r0, r0, r3, lsr #31
 800061a:	bd70      	pop	{r4, r5, r6, pc}
 800061c:	f1c4 040c 	rsb	r4, r4, #12
 8000620:	f1c4 0520 	rsb	r5, r4, #32
 8000624:	fa00 f304 	lsl.w	r3, r0, r4
 8000628:	fa20 f005 	lsr.w	r0, r0, r5
 800062c:	fa01 f204 	lsl.w	r2, r1, r4
 8000630:	ea40 0002 	orr.w	r0, r0, r2
 8000634:	f001 4100 	and.w	r1, r1, #2147483648	; 0x80000000
 8000638:	eb10 70d3 	adds.w	r0, r0, r3, lsr #31
 800063c:	f141 0100 	adc.w	r1, r1, #0
 8000640:	ea5e 0e43 	orrs.w	lr, lr, r3, lsl #1
 8000644:	bf08      	it	eq
 8000646:	ea20 70d3 	biceq.w	r0, r0, r3, lsr #31
 800064a:	bd70      	pop	{r4, r5, r6, pc}
 800064c:	f1c4 0520 	rsb	r5, r4, #32
 8000650:	fa00 f205 	lsl.w	r2, r0, r5
 8000654:	ea4e 0e02 	orr.w	lr, lr, r2
 8000658:	fa20 f304 	lsr.w	r3, r0, r4
 800065c:	fa01 f205 	lsl.w	r2, r1, r5
 8000660:	ea43 0302 	orr.w	r3, r3, r2
 8000664:	fa21 f004 	lsr.w	r0, r1, r4
 8000668:	f001 4100 	and.w	r1, r1, #2147483648	; 0x80000000
 800066c:	fa21 f204 	lsr.w	r2, r1, r4
 8000670:	ea20 0002 	bic.w	r0, r0, r2
 8000674:	eb00 70d3 	add.w	r0, r0, r3, lsr #31
 8000678:	ea5e 0e43 	orrs.w	lr, lr, r3, lsl #1
 800067c:	bf08      	it	eq
 800067e:	ea20 70d3 	biceq.w	r0, r0, r3, lsr #31
 8000682:	bd70      	pop	{r4, r5, r6, pc}
 8000684:	f094 0f00 	teq	r4, #0
 8000688:	d10f      	bne.n	80006aa <__aeabi_dmul+0x1c2>
 800068a:	f001 4600 	and.w	r6, r1, #2147483648	; 0x80000000
 800068e:	0040      	lsls	r0, r0, #1
 8000690:	eb41 0101 	adc.w	r1, r1, r1
 8000694:	f411 1f80 	tst.w	r1, #1048576	; 0x100000
 8000698:	bf08      	it	eq
 800069a:	3c01      	subeq	r4, #1
 800069c:	d0f7      	beq.n	800068e <__aeabi_dmul+0x1a6>
 800069e:	ea41 0106 	orr.w	r1, r1, r6
 80006a2:	f095 0f00 	teq	r5, #0
 80006a6:	bf18      	it	ne
 80006a8:	4770      	bxne	lr
 80006aa:	f003 4600 	and.w	r6, r3, #2147483648	; 0x80000000
 80006ae:	0052      	lsls	r2, r2, #1
 80006b0:	eb43 0303 	adc.w	r3, r3, r3
 80006b4:	f413 1f80 	tst.w	r3, #1048576	; 0x100000
 80006b8:	bf08      	it	eq
 80006ba:	3d01      	subeq	r5, #1
 80006bc:	d0f7      	beq.n	80006ae <__aeabi_dmul+0x1c6>
 80006be:	ea43 0306 	orr.w	r3, r3, r6
 80006c2:	4770      	bx	lr
 80006c4:	ea94 0f0c 	teq	r4, ip
 80006c8:	ea0c 5513 	and.w	r5, ip, r3, lsr #20
 80006cc:	bf18      	it	ne
 80006ce:	ea95 0f0c 	teqne	r5, ip
 80006d2:	d00c      	beq.n	80006ee <__aeabi_dmul+0x206>
 80006d4:	ea50 0641 	orrs.w	r6, r0, r1, lsl #1
 80006d8:	bf18      	it	ne
 80006da:	ea52 0643 	orrsne.w	r6, r2, r3, lsl #1
 80006de:	d1d1      	bne.n	8000684 <__aeabi_dmul+0x19c>
 80006e0:	ea81 0103 	eor.w	r1, r1, r3
 80006e4:	f001 4100 	and.w	r1, r1, #2147483648	; 0x80000000
 80006e8:	f04f 0000 	mov.w	r0, #0
 80006ec:	bd70      	pop	{r4, r5, r6, pc}
 80006ee:	ea50 0641 	orrs.w	r6, r0, r1, lsl #1
 80006f2:	bf06      	itte	eq
 80006f4:	4610      	moveq	r0, r2
 80006f6:	4619      	moveq	r1, r3
 80006f8:	ea52 0643 	orrsne.w	r6, r2, r3, lsl #1
 80006fc:	d019      	beq.n	8000732 <__aeabi_dmul+0x24a>
 80006fe:	ea94 0f0c 	teq	r4, ip
 8000702:	d102      	bne.n	800070a <__aeabi_dmul+0x222>
 8000704:	ea50 3601 	orrs.w	r6, r0, r1, lsl #12
 8000708:	d113      	bne.n	8000732 <__aeabi_dmul+0x24a>
 800070a:	ea95 0f0c 	teq	r5, ip
 800070e:	d105      	bne.n	800071c <__aeabi_dmul+0x234>
 8000710:	ea52 3603 	orrs.w	r6, r2, r3, lsl #12
 8000714:	bf1c      	itt	ne
 8000716:	4610      	movne	r0, r2
 8000718:	4619      	movne	r1, r3
 800071a:	d10a      	bne.n	8000732 <__aeabi_dmul+0x24a>
 800071c:	ea81 0103 	eor.w	r1, r1, r3
 8000720:	f001 4100 	and.w	r1, r1, #2147483648	; 0x80000000
 8000724:	f041 41fe 	orr.w	r1, r1, #2130706432	; 0x7f000000
 8000728:	f441 0170 	orr.w	r1, r1, #15728640	; 0xf00000
 800072c:	f04f 0000 	mov.w	r0, #0
 8000730:	bd70      	pop	{r4, r5, r6, pc}
 8000732:	f041 41fe 	orr.w	r1, r1, #2130706432	; 0x7f000000
 8000736:	f441 0178 	orr.w	r1, r1, #16252928	; 0xf80000
 800073a:	bd70      	pop	{r4, r5, r6, pc}

0800073c <__aeabi_ddiv>:
 800073c:	b570      	push	{r4, r5, r6, lr}
 800073e:	f04f 0cff 	mov.w	ip, #255	; 0xff
 8000742:	f44c 6ce0 	orr.w	ip, ip, #1792	; 0x700
 8000746:	ea1c 5411 	ands.w	r4, ip, r1, lsr #20
 800074a:	bf1d      	ittte	ne
 800074c:	ea1c 5513 	andsne.w	r5, ip, r3, lsr #20
 8000750:	ea94 0f0c 	teqne	r4, ip
 8000754:	ea95 0f0c 	teqne	r5, ip
 8000758:	f000 f8a7 	bleq	80008aa <__aeabi_ddiv+0x16e>
 800075c:	eba4 0405 	sub.w	r4, r4, r5
 8000760:	ea81 0e03 	eor.w	lr, r1, r3
 8000764:	ea52 3503 	orrs.w	r5, r2, r3, lsl #12
 8000768:	ea4f 3101 	mov.w	r1, r1, lsl #12
 800076c:	f000 8088 	beq.w	8000880 <__aeabi_ddiv+0x144>
 8000770:	ea4f 3303 	mov.w	r3, r3, lsl #12
 8000774:	f04f 5580 	mov.w	r5, #268435456	; 0x10000000
 8000778:	ea45 1313 	orr.w	r3, r5, r3, lsr #4
 800077c:	ea43 6312 	orr.w	r3, r3, r2, lsr #24
 8000780:	ea4f 2202 	mov.w	r2, r2, lsl #8
 8000784:	ea45 1511 	orr.w	r5, r5, r1, lsr #4
 8000788:	ea45 6510 	orr.w	r5, r5, r0, lsr #24
 800078c:	ea4f 2600 	mov.w	r6, r0, lsl #8
 8000790:	f00e 4100 	and.w	r1, lr, #2147483648	; 0x80000000
 8000794:	429d      	cmp	r5, r3
 8000796:	bf08      	it	eq
 8000798:	4296      	cmpeq	r6, r2
 800079a:	f144 04fd 	adc.w	r4, r4, #253	; 0xfd
 800079e:	f504 7440 	add.w	r4, r4, #768	; 0x300
 80007a2:	d202      	bcs.n	80007aa <__aeabi_ddiv+0x6e>
 80007a4:	085b      	lsrs	r3, r3, #1
 80007a6:	ea4f 0232 	mov.w	r2, r2, rrx
 80007aa:	1ab6      	subs	r6, r6, r2
 80007ac:	eb65 0503 	sbc.w	r5, r5, r3
 80007b0:	085b      	lsrs	r3, r3, #1
 80007b2:	ea4f 0232 	mov.w	r2, r2, rrx
 80007b6:	f44f 1080 	mov.w	r0, #1048576	; 0x100000
 80007ba:	f44f 2c00 	mov.w	ip, #524288	; 0x80000
 80007be:	ebb6 0e02 	subs.w	lr, r6, r2
 80007c2:	eb75 0e03 	sbcs.w	lr, r5, r3
 80007c6:	bf22      	ittt	cs
 80007c8:	1ab6      	subcs	r6, r6, r2
 80007ca:	4675      	movcs	r5, lr
 80007cc:	ea40 000c 	orrcs.w	r0, r0, ip
 80007d0:	085b      	lsrs	r3, r3, #1
 80007d2:	ea4f 0232 	mov.w	r2, r2, rrx
 80007d6:	ebb6 0e02 	subs.w	lr, r6, r2
 80007da:	eb75 0e03 	sbcs.w	lr, r5, r3
 80007de:	bf22      	ittt	cs
 80007e0:	1ab6      	subcs	r6, r6, r2
 80007e2:	4675      	movcs	r5, lr
 80007e4:	ea40 005c 	orrcs.w	r0, r0, ip, lsr #1
 80007e8:	085b      	lsrs	r3, r3, #1
 80007ea:	ea4f 0232 	mov.w	r2, r2, rrx
 80007ee:	ebb6 0e02 	subs.w	lr, r6, r2
 80007f2:	eb75 0e03 	sbcs.w	lr, r5, r3
 80007f6:	bf22      	ittt	cs
 80007f8:	1ab6      	subcs	r6, r6, r2
 80007fa:	4675      	movcs	r5, lr
 80007fc:	ea40 009c 	orrcs.w	r0, r0, ip, lsr #2
 8000800:	085b      	lsrs	r3, r3, #1
 8000802:	ea4f 0232 	mov.w	r2, r2, rrx
 8000806:	ebb6 0e02 	subs.w	lr, r6, r2
 800080a:	eb75 0e03 	sbcs.w	lr, r5, r3
 800080e:	bf22      	ittt	cs
 8000810:	1ab6      	subcs	r6, r6, r2
 8000812:	4675      	movcs	r5, lr
 8000814:	ea40 00dc 	orrcs.w	r0, r0, ip, lsr #3
 8000818:	ea55 0e06 	orrs.w	lr, r5, r6
 800081c:	d018      	beq.n	8000850 <__aeabi_ddiv+0x114>
 800081e:	ea4f 1505 	mov.w	r5, r5, lsl #4
 8000822:	ea45 7516 	orr.w	r5, r5, r6, lsr #28
 8000826:	ea4f 1606 	mov.w	r6, r6, lsl #4
 800082a:	ea4f 03c3 	mov.w	r3, r3, lsl #3
 800082e:	ea43 7352 	orr.w	r3, r3, r2, lsr #29
 8000832:	ea4f 02c2 	mov.w	r2, r2, lsl #3
 8000836:	ea5f 1c1c 	movs.w	ip, ip, lsr #4
 800083a:	d1c0      	bne.n	80007be <__aeabi_ddiv+0x82>
 800083c:	f411 1f80 	tst.w	r1, #1048576	; 0x100000
 8000840:	d10b      	bne.n	800085a <__aeabi_ddiv+0x11e>
 8000842:	ea41 0100 	orr.w	r1, r1, r0
 8000846:	f04f 0000 	mov.w	r0, #0
 800084a:	f04f 4c00 	mov.w	ip, #2147483648	; 0x80000000
 800084e:	e7b6      	b.n	80007be <__aeabi_ddiv+0x82>
 8000850:	f411 1f80 	tst.w	r1, #1048576	; 0x100000
 8000854:	bf04      	itt	eq
 8000856:	4301      	orreq	r1, r0
 8000858:	2000      	moveq	r0, #0
 800085a:	f1b4 0cfd 	subs.w	ip, r4, #253	; 0xfd
 800085e:	bf88      	it	hi
 8000860:	f5bc 6fe0 	cmphi.w	ip, #1792	; 0x700
 8000864:	f63f aeaf 	bhi.w	80005c6 <__aeabi_dmul+0xde>
 8000868:	ebb5 0c03 	subs.w	ip, r5, r3
 800086c:	bf04      	itt	eq
 800086e:	ebb6 0c02 	subseq.w	ip, r6, r2
 8000872:	ea5f 0c50 	movseq.w	ip, r0, lsr #1
 8000876:	f150 0000 	adcs.w	r0, r0, #0
 800087a:	eb41 5104 	adc.w	r1, r1, r4, lsl #20
 800087e:	bd70      	pop	{r4, r5, r6, pc}
 8000880:	f00e 4e00 	and.w	lr, lr, #2147483648	; 0x80000000
 8000884:	ea4e 3111 	orr.w	r1, lr, r1, lsr #12
 8000888:	eb14 045c 	adds.w	r4, r4, ip, lsr #1
 800088c:	bfc2      	ittt	gt
 800088e:	ebd4 050c 	rsbsgt	r5, r4, ip
 8000892:	ea41 5104 	orrgt.w	r1, r1, r4, lsl #20
 8000896:	bd70      	popgt	{r4, r5, r6, pc}
 8000898:	f441 1180 	orr.w	r1, r1, #1048576	; 0x100000
 800089c:	f04f 0e00 	mov.w	lr, #0
 80008a0:	3c01      	subs	r4, #1
 80008a2:	e690      	b.n	80005c6 <__aeabi_dmul+0xde>
 80008a4:	ea45 0e06 	orr.w	lr, r5, r6
 80008a8:	e68d      	b.n	80005c6 <__aeabi_dmul+0xde>
 80008aa:	ea0c 5513 	and.w	r5, ip, r3, lsr #20
 80008ae:	ea94 0f0c 	teq	r4, ip
 80008b2:	bf08      	it	eq
 80008b4:	ea95 0f0c 	teqeq	r5, ip
 80008b8:	f43f af3b 	beq.w	8000732 <__aeabi_dmul+0x24a>
 80008bc:	ea94 0f0c 	teq	r4, ip
 80008c0:	d10a      	bne.n	80008d8 <__aeabi_ddiv+0x19c>
 80008c2:	ea50 3401 	orrs.w	r4, r0, r1, lsl #12
 80008c6:	f47f af34 	bne.w	8000732 <__aeabi_dmul+0x24a>
 80008ca:	ea95 0f0c 	teq	r5, ip
 80008ce:	f47f af25 	bne.w	800071c <__aeabi_dmul+0x234>
 80008d2:	4610      	mov	r0, r2
 80008d4:	4619      	mov	r1, r3
 80008d6:	e72c      	b.n	8000732 <__aeabi_dmul+0x24a>
 80008d8:	ea95 0f0c 	teq	r5, ip
 80008dc:	d106      	bne.n	80008ec <__aeabi_ddiv+0x1b0>
 80008de:	ea52 3503 	orrs.w	r5, r2, r3, lsl #12
 80008e2:	f43f aefd 	beq.w	80006e0 <__aeabi_dmul+0x1f8>
 80008e6:	4610      	mov	r0, r2
 80008e8:	4619      	mov	r1, r3
 80008ea:	e722      	b.n	8000732 <__aeabi_dmul+0x24a>
 80008ec:	ea50 0641 	orrs.w	r6, r0, r1, lsl #1
 80008f0:	bf18      	it	ne
 80008f2:	ea52 0643 	orrsne.w	r6, r2, r3, lsl #1
 80008f6:	f47f aec5 	bne.w	8000684 <__aeabi_dmul+0x19c>
 80008fa:	ea50 0441 	orrs.w	r4, r0, r1, lsl #1
 80008fe:	f47f af0d 	bne.w	800071c <__aeabi_dmul+0x234>
 8000902:	ea52 0543 	orrs.w	r5, r2, r3, lsl #1
 8000906:	f47f aeeb 	bne.w	80006e0 <__aeabi_dmul+0x1f8>
 800090a:	e712      	b.n	8000732 <__aeabi_dmul+0x24a>

0800090c <__aeabi_d2f>:
 800090c:	ea4f 0241 	mov.w	r2, r1, lsl #1
 8000910:	f1b2 43e0 	subs.w	r3, r2, #1879048192	; 0x70000000
 8000914:	bf24      	itt	cs
 8000916:	f5b3 1c00 	subscs.w	ip, r3, #2097152	; 0x200000
 800091a:	f1dc 5cfe 	rsbscs	ip, ip, #532676608	; 0x1fc00000
 800091e:	d90d      	bls.n	800093c <__aeabi_d2f+0x30>
 8000920:	f001 4c00 	and.w	ip, r1, #2147483648	; 0x80000000
 8000924:	ea4f 02c0 	mov.w	r2, r0, lsl #3
 8000928:	ea4c 7050 	orr.w	r0, ip, r0, lsr #29
 800092c:	f1b2 4f00 	cmp.w	r2, #2147483648	; 0x80000000
 8000930:	eb40 0083 	adc.w	r0, r0, r3, lsl #2
 8000934:	bf08      	it	eq
 8000936:	f020 0001 	biceq.w	r0, r0, #1
 800093a:	4770      	bx	lr
 800093c:	f011 4f80 	tst.w	r1, #1073741824	; 0x40000000
 8000940:	d121      	bne.n	8000986 <__aeabi_d2f+0x7a>
 8000942:	f113 7238 	adds.w	r2, r3, #48234496	; 0x2e00000
 8000946:	bfbc      	itt	lt
 8000948:	f001 4000 	andlt.w	r0, r1, #2147483648	; 0x80000000
 800094c:	4770      	bxlt	lr
 800094e:	f441 1180 	orr.w	r1, r1, #1048576	; 0x100000
 8000952:	ea4f 5252 	mov.w	r2, r2, lsr #21
 8000956:	f1c2 0218 	rsb	r2, r2, #24
 800095a:	f1c2 0c20 	rsb	ip, r2, #32
 800095e:	fa10 f30c 	lsls.w	r3, r0, ip
 8000962:	fa20 f002 	lsr.w	r0, r0, r2
 8000966:	bf18      	it	ne
 8000968:	f040 0001 	orrne.w	r0, r0, #1
 800096c:	ea4f 23c1 	mov.w	r3, r1, lsl #11
 8000970:	ea4f 23d3 	mov.w	r3, r3, lsr #11
 8000974:	fa03 fc0c 	lsl.w	ip, r3, ip
 8000978:	ea40 000c 	orr.w	r0, r0, ip
 800097c:	fa23 f302 	lsr.w	r3, r3, r2
 8000980:	ea4f 0343 	mov.w	r3, r3, lsl #1
 8000984:	e7cc      	b.n	8000920 <__aeabi_d2f+0x14>
 8000986:	ea7f 5362 	mvns.w	r3, r2, asr #21
 800098a:	d107      	bne.n	800099c <__aeabi_d2f+0x90>
 800098c:	ea50 3301 	orrs.w	r3, r0, r1, lsl #12
 8000990:	bf1e      	ittt	ne
 8000992:	f04f 40fe 	movne.w	r0, #2130706432	; 0x7f000000
 8000996:	f440 0040 	orrne.w	r0, r0, #12582912	; 0xc00000
 800099a:	4770      	bxne	lr
 800099c:	f001 4000 	and.w	r0, r1, #2147483648	; 0x80000000
 80009a0:	f040 40fe 	orr.w	r0, r0, #2130706432	; 0x7f000000
 80009a4:	f440 0000 	orr.w	r0, r0, #8388608	; 0x800000
 80009a8:	4770      	bx	lr
 80009aa:	bf00      	nop

080009ac <__aeabi_frsub>:
 80009ac:	f080 4000 	eor.w	r0, r0, #2147483648	; 0x80000000
 80009b0:	e002      	b.n	80009b8 <__addsf3>
 80009b2:	bf00      	nop

080009b4 <__aeabi_fsub>:
 80009b4:	f081 4100 	eor.w	r1, r1, #2147483648	; 0x80000000

080009b8 <__addsf3>:
 80009b8:	0042      	lsls	r2, r0, #1
 80009ba:	bf1f      	itttt	ne
 80009bc:	ea5f 0341 	movsne.w	r3, r1, lsl #1
 80009c0:	ea92 0f03 	teqne	r2, r3
 80009c4:	ea7f 6c22 	mvnsne.w	ip, r2, asr #24
 80009c8:	ea7f 6c23 	mvnsne.w	ip, r3, asr #24
 80009cc:	d06a      	beq.n	8000aa4 <__addsf3+0xec>
 80009ce:	ea4f 6212 	mov.w	r2, r2, lsr #24
 80009d2:	ebd2 6313 	rsbs	r3, r2, r3, lsr #24
 80009d6:	bfc1      	itttt	gt
 80009d8:	18d2      	addgt	r2, r2, r3
 80009da:	4041      	eorgt	r1, r0
 80009dc:	4048      	eorgt	r0, r1
 80009de:	4041      	eorgt	r1, r0
 80009e0:	bfb8      	it	lt
 80009e2:	425b      	neglt	r3, r3
 80009e4:	2b19      	cmp	r3, #25
 80009e6:	bf88      	it	hi
 80009e8:	4770      	bxhi	lr
 80009ea:	f010 4f00 	tst.w	r0, #2147483648	; 0x80000000
 80009ee:	f440 0000 	orr.w	r0, r0, #8388608	; 0x800000
 80009f2:	f020 407f 	bic.w	r0, r0, #4278190080	; 0xff000000
 80009f6:	bf18      	it	ne
 80009f8:	4240      	negne	r0, r0
 80009fa:	f011 4f00 	tst.w	r1, #2147483648	; 0x80000000
 80009fe:	f441 0100 	orr.w	r1, r1, #8388608	; 0x800000
 8000a02:	f021 417f 	bic.w	r1, r1, #4278190080	; 0xff000000
 8000a06:	bf18      	it	ne
 8000a08:	4249      	negne	r1, r1
 8000a0a:	ea92 0f03 	teq	r2, r3
 8000a0e:	d03f      	beq.n	8000a90 <__addsf3+0xd8>
 8000a10:	f1a2 0201 	sub.w	r2, r2, #1
 8000a14:	fa41 fc03 	asr.w	ip, r1, r3
 8000a18:	eb10 000c 	adds.w	r0, r0, ip
 8000a1c:	f1c3 0320 	rsb	r3, r3, #32
 8000a20:	fa01 f103 	lsl.w	r1, r1, r3
 8000a24:	f000 4300 	and.w	r3, r0, #2147483648	; 0x80000000
 8000a28:	d502      	bpl.n	8000a30 <__addsf3+0x78>
 8000a2a:	4249      	negs	r1, r1
 8000a2c:	eb60 0040 	sbc.w	r0, r0, r0, lsl #1
 8000a30:	f5b0 0f00 	cmp.w	r0, #8388608	; 0x800000
 8000a34:	d313      	bcc.n	8000a5e <__addsf3+0xa6>
 8000a36:	f1b0 7f80 	cmp.w	r0, #16777216	; 0x1000000
 8000a3a:	d306      	bcc.n	8000a4a <__addsf3+0x92>
 8000a3c:	0840      	lsrs	r0, r0, #1
 8000a3e:	ea4f 0131 	mov.w	r1, r1, rrx
 8000a42:	f102 0201 	add.w	r2, r2, #1
 8000a46:	2afe      	cmp	r2, #254	; 0xfe
 8000a48:	d251      	bcs.n	8000aee <__addsf3+0x136>
 8000a4a:	f1b1 4f00 	cmp.w	r1, #2147483648	; 0x80000000
 8000a4e:	eb40 50c2 	adc.w	r0, r0, r2, lsl #23
 8000a52:	bf08      	it	eq
 8000a54:	f020 0001 	biceq.w	r0, r0, #1
 8000a58:	ea40 0003 	orr.w	r0, r0, r3
 8000a5c:	4770      	bx	lr
 8000a5e:	0049      	lsls	r1, r1, #1
 8000a60:	eb40 0000 	adc.w	r0, r0, r0
 8000a64:	3a01      	subs	r2, #1
 8000a66:	bf28      	it	cs
 8000a68:	f5b0 0f00 	cmpcs.w	r0, #8388608	; 0x800000
 8000a6c:	d2ed      	bcs.n	8000a4a <__addsf3+0x92>
 8000a6e:	fab0 fc80 	clz	ip, r0
 8000a72:	f1ac 0c08 	sub.w	ip, ip, #8
 8000a76:	ebb2 020c 	subs.w	r2, r2, ip
 8000a7a:	fa00 f00c 	lsl.w	r0, r0, ip
 8000a7e:	bfaa      	itet	ge
 8000a80:	eb00 50c2 	addge.w	r0, r0, r2, lsl #23
 8000a84:	4252      	neglt	r2, r2
 8000a86:	4318      	orrge	r0, r3
 8000a88:	bfbc      	itt	lt
 8000a8a:	40d0      	lsrlt	r0, r2
 8000a8c:	4318      	orrlt	r0, r3
 8000a8e:	4770      	bx	lr
 8000a90:	f092 0f00 	teq	r2, #0
 8000a94:	f481 0100 	eor.w	r1, r1, #8388608	; 0x800000
 8000a98:	bf06      	itte	eq
 8000a9a:	f480 0000 	eoreq.w	r0, r0, #8388608	; 0x800000
 8000a9e:	3201      	addeq	r2, #1
 8000aa0:	3b01      	subne	r3, #1
 8000aa2:	e7b5      	b.n	8000a10 <__addsf3+0x58>
 8000aa4:	ea4f 0341 	mov.w	r3, r1, lsl #1
 8000aa8:	ea7f 6c22 	mvns.w	ip, r2, asr #24
 8000aac:	bf18      	it	ne
 8000aae:	ea7f 6c23 	mvnsne.w	ip, r3, asr #24
 8000ab2:	d021      	beq.n	8000af8 <__addsf3+0x140>
 8000ab4:	ea92 0f03 	teq	r2, r3
 8000ab8:	d004      	beq.n	8000ac4 <__addsf3+0x10c>
 8000aba:	f092 0f00 	teq	r2, #0
 8000abe:	bf08      	it	eq
 8000ac0:	4608      	moveq	r0, r1
 8000ac2:	4770      	bx	lr
 8000ac4:	ea90 0f01 	teq	r0, r1
 8000ac8:	bf1c      	itt	ne
 8000aca:	2000      	movne	r0, #0
 8000acc:	4770      	bxne	lr
 8000ace:	f012 4f7f 	tst.w	r2, #4278190080	; 0xff000000
 8000ad2:	d104      	bne.n	8000ade <__addsf3+0x126>
 8000ad4:	0040      	lsls	r0, r0, #1
 8000ad6:	bf28      	it	cs
 8000ad8:	f040 4000 	orrcs.w	r0, r0, #2147483648	; 0x80000000
 8000adc:	4770      	bx	lr
 8000ade:	f112 7200 	adds.w	r2, r2, #33554432	; 0x2000000
 8000ae2:	bf3c      	itt	cc
 8000ae4:	f500 0000 	addcc.w	r0, r0, #8388608	; 0x800000
 8000ae8:	4770      	bxcc	lr
 8000aea:	f000 4300 	and.w	r3, r0, #2147483648	; 0x80000000
 8000aee:	f043 40fe 	orr.w	r0, r3, #2130706432	; 0x7f000000
 8000af2:	f440 0000 	orr.w	r0, r0, #8388608	; 0x800000
 8000af6:	4770      	bx	lr
 8000af8:	ea7f 6222 	mvns.w	r2, r2, asr #24
 8000afc:	bf16      	itet	ne
 8000afe:	4608      	movne	r0, r1
 8000b00:	ea7f 6323 	mvnseq.w	r3, r3, asr #24
 8000b04:	4601      	movne	r1, r0
 8000b06:	0242      	lsls	r2, r0, #9
 8000b08:	bf06      	itte	eq
 8000b0a:	ea5f 2341 	movseq.w	r3, r1, lsl #9
 8000b0e:	ea90 0f01 	teqeq	r0, r1
 8000b12:	f440 0080 	orrne.w	r0, r0, #4194304	; 0x400000
 8000b16:	4770      	bx	lr

08000b18 <__aeabi_ui2f>:
 8000b18:	f04f 0300 	mov.w	r3, #0
 8000b1c:	e004      	b.n	8000b28 <__aeabi_i2f+0x8>
 8000b1e:	bf00      	nop

08000b20 <__aeabi_i2f>:
 8000b20:	f010 4300 	ands.w	r3, r0, #2147483648	; 0x80000000
 8000b24:	bf48      	it	mi
 8000b26:	4240      	negmi	r0, r0
 8000b28:	ea5f 0c00 	movs.w	ip, r0
 8000b2c:	bf08      	it	eq
 8000b2e:	4770      	bxeq	lr
 8000b30:	f043 4396 	orr.w	r3, r3, #1258291200	; 0x4b000000
 8000b34:	4601      	mov	r1, r0
 8000b36:	f04f 0000 	mov.w	r0, #0
 8000b3a:	e01c      	b.n	8000b76 <__aeabi_l2f+0x2a>

08000b3c <__aeabi_ul2f>:
 8000b3c:	ea50 0201 	orrs.w	r2, r0, r1
 8000b40:	bf08      	it	eq
 8000b42:	4770      	bxeq	lr
 8000b44:	f04f 0300 	mov.w	r3, #0
 8000b48:	e00a      	b.n	8000b60 <__aeabi_l2f+0x14>
 8000b4a:	bf00      	nop

08000b4c <__aeabi_l2f>:
 8000b4c:	ea50 0201 	orrs.w	r2, r0, r1
 8000b50:	bf08      	it	eq
 8000b52:	4770      	bxeq	lr
 8000b54:	f011 4300 	ands.w	r3, r1, #2147483648	; 0x80000000
 8000b58:	d502      	bpl.n	8000b60 <__aeabi_l2f+0x14>
 8000b5a:	4240      	negs	r0, r0
 8000b5c:	eb61 0141 	sbc.w	r1, r1, r1, lsl #1
 8000b60:	ea5f 0c01 	movs.w	ip, r1
 8000b64:	bf02      	ittt	eq
 8000b66:	4684      	moveq	ip, r0
 8000b68:	4601      	moveq	r1, r0
 8000b6a:	2000      	moveq	r0, #0
 8000b6c:	f043 43b6 	orr.w	r3, r3, #1526726656	; 0x5b000000
 8000b70:	bf08      	it	eq
 8000b72:	f1a3 5380 	subeq.w	r3, r3, #268435456	; 0x10000000
 8000b76:	f5a3 0300 	sub.w	r3, r3, #8388608	; 0x800000
 8000b7a:	fabc f28c 	clz	r2, ip
 8000b7e:	3a08      	subs	r2, #8
 8000b80:	eba3 53c2 	sub.w	r3, r3, r2, lsl #23
 8000b84:	db10      	blt.n	8000ba8 <__aeabi_l2f+0x5c>
 8000b86:	fa01 fc02 	lsl.w	ip, r1, r2
 8000b8a:	4463      	add	r3, ip
 8000b8c:	fa00 fc02 	lsl.w	ip, r0, r2
 8000b90:	f1c2 0220 	rsb	r2, r2, #32
 8000b94:	f1bc 4f00 	cmp.w	ip, #2147483648	; 0x80000000
 8000b98:	fa20 f202 	lsr.w	r2, r0, r2
 8000b9c:	eb43 0002 	adc.w	r0, r3, r2
 8000ba0:	bf08      	it	eq
 8000ba2:	f020 0001 	biceq.w	r0, r0, #1
 8000ba6:	4770      	bx	lr
 8000ba8:	f102 0220 	add.w	r2, r2, #32
 8000bac:	fa01 fc02 	lsl.w	ip, r1, r2
 8000bb0:	f1c2 0220 	rsb	r2, r2, #32
 8000bb4:	ea50 004c 	orrs.w	r0, r0, ip, lsl #1
 8000bb8:	fa21 f202 	lsr.w	r2, r1, r2
 8000bbc:	eb43 0002 	adc.w	r0, r3, r2
 8000bc0:	bf08      	it	eq
 8000bc2:	ea20 70dc 	biceq.w	r0, r0, ip, lsr #31
 8000bc6:	4770      	bx	lr

08000bc8 <__gesf2>:
 8000bc8:	f04f 3cff 	mov.w	ip, #4294967295
 8000bcc:	e006      	b.n	8000bdc <__cmpsf2+0x4>
 8000bce:	bf00      	nop

08000bd0 <__lesf2>:
 8000bd0:	f04f 0c01 	mov.w	ip, #1
 8000bd4:	e002      	b.n	8000bdc <__cmpsf2+0x4>
 8000bd6:	bf00      	nop

08000bd8 <__cmpsf2>:
 8000bd8:	f04f 0c01 	mov.w	ip, #1
 8000bdc:	f84d cd04 	str.w	ip, [sp, #-4]!
 8000be0:	ea4f 0240 	mov.w	r2, r0, lsl #1
 8000be4:	ea4f 0341 	mov.w	r3, r1, lsl #1
 8000be8:	ea7f 6c22 	mvns.w	ip, r2, asr #24
 8000bec:	bf18      	it	ne
 8000bee:	ea7f 6c23 	mvnsne.w	ip, r3, asr #24
 8000bf2:	d011      	beq.n	8000c18 <__cmpsf2+0x40>
 8000bf4:	b001      	add	sp, #4
 8000bf6:	ea52 0c53 	orrs.w	ip, r2, r3, lsr #1
 8000bfa:	bf18      	it	ne
 8000bfc:	ea90 0f01 	teqne	r0, r1
 8000c00:	bf58      	it	pl
 8000c02:	ebb2 0003 	subspl.w	r0, r2, r3
 8000c06:	bf88      	it	hi
 8000c08:	17c8      	asrhi	r0, r1, #31
 8000c0a:	bf38      	it	cc
 8000c0c:	ea6f 70e1 	mvncc.w	r0, r1, asr #31
 8000c10:	bf18      	it	ne
 8000c12:	f040 0001 	orrne.w	r0, r0, #1
 8000c16:	4770      	bx	lr
 8000c18:	ea7f 6c22 	mvns.w	ip, r2, asr #24
 8000c1c:	d102      	bne.n	8000c24 <__cmpsf2+0x4c>
 8000c1e:	ea5f 2c40 	movs.w	ip, r0, lsl #9
 8000c22:	d105      	bne.n	8000c30 <__cmpsf2+0x58>
 8000c24:	ea7f 6c23 	mvns.w	ip, r3, asr #24
 8000c28:	d1e4      	bne.n	8000bf4 <__cmpsf2+0x1c>
 8000c2a:	ea5f 2c41 	movs.w	ip, r1, lsl #9
 8000c2e:	d0e1      	beq.n	8000bf4 <__cmpsf2+0x1c>
 8000c30:	f85d 0b04 	ldr.w	r0, [sp], #4
 8000c34:	4770      	bx	lr
 8000c36:	bf00      	nop

08000c38 <__aeabi_cfrcmple>:
 8000c38:	4684      	mov	ip, r0
 8000c3a:	4608      	mov	r0, r1
 8000c3c:	4661      	mov	r1, ip
 8000c3e:	e7ff      	b.n	8000c40 <__aeabi_cfcmpeq>

08000c40 <__aeabi_cfcmpeq>:
 8000c40:	b50f      	push	{r0, r1, r2, r3, lr}
 8000c42:	f7ff ffc9 	bl	8000bd8 <__cmpsf2>
 8000c46:	2800      	cmp	r0, #0
 8000c48:	bf48      	it	mi
 8000c4a:	f110 0f00 	cmnmi.w	r0, #0
 8000c4e:	bd0f      	pop	{r0, r1, r2, r3, pc}

08000c50 <__aeabi_fcmpeq>:
 8000c50:	f84d ed08 	str.w	lr, [sp, #-8]!
 8000c54:	f7ff fff4 	bl	8000c40 <__aeabi_cfcmpeq>
 8000c58:	bf0c      	ite	eq
 8000c5a:	2001      	moveq	r0, #1
 8000c5c:	2000      	movne	r0, #0
 8000c5e:	f85d fb08 	ldr.w	pc, [sp], #8
 8000c62:	bf00      	nop

08000c64 <__aeabi_fcmplt>:
 8000c64:	f84d ed08 	str.w	lr, [sp, #-8]!
 8000c68:	f7ff ffea 	bl	8000c40 <__aeabi_cfcmpeq>
 8000c6c:	bf34      	ite	cc
 8000c6e:	2001      	movcc	r0, #1
 8000c70:	2000      	movcs	r0, #0
 8000c72:	f85d fb08 	ldr.w	pc, [sp], #8
 8000c76:	bf00      	nop

08000c78 <__aeabi_fcmple>:
 8000c78:	f84d ed08 	str.w	lr, [sp, #-8]!
 8000c7c:	f7ff ffe0 	bl	8000c40 <__aeabi_cfcmpeq>
 8000c80:	bf94      	ite	ls
 8000c82:	2001      	movls	r0, #1
 8000c84:	2000      	movhi	r0, #0
 8000c86:	f85d fb08 	ldr.w	pc, [sp], #8
 8000c8a:	bf00      	nop

08000c8c <__aeabi_fcmpge>:
 8000c8c:	f84d ed08 	str.w	lr, [sp, #-8]!
 8000c90:	f7ff ffd2 	bl	8000c38 <__aeabi_cfrcmple>
 8000c94:	bf94      	ite	ls
 8000c96:	2001      	movls	r0, #1
 8000c98:	2000      	movhi	r0, #0
 8000c9a:	f85d fb08 	ldr.w	pc, [sp], #8
 8000c9e:	bf00      	nop

08000ca0 <__aeabi_fcmpgt>:
 8000ca0:	f84d ed08 	str.w	lr, [sp, #-8]!
 8000ca4:	f7ff ffc8 	bl	8000c38 <__aeabi_cfrcmple>
 8000ca8:	bf34      	ite	cc
 8000caa:	2001      	movcc	r0, #1
 8000cac:	2000      	movcs	r0, #0
 8000cae:	f85d fb08 	ldr.w	pc, [sp], #8
 8000cb2:	bf00      	nop

08000cb4 <Set_GPIO_pins>:
//Motor3_Front     Back_Left_Motor                GPIO_PIN_3   PORTB
//Motor3_Back      Back_Left_Motor                GPIO_PIN_4   PORTB
//Motor4_Front     Back_Right_Motor               GPIO_PIN_7   PORTB
//Motor4_Back      Back_Right_Motor               GPIO_PIN_8   PORTB
void Set_GPIO_pins(void)
{
 8000cb4:	b580      	push	{r7, lr}
 8000cb6:	af00      	add	r7, sp, #0
	GPIO_Pin.GPIO_MODE = GPIO_MODE_OUTPUT_PP;
 8000cb8:	4b12      	ldr	r3, [pc, #72]	; (8000d04 <Set_GPIO_pins+0x50>)
 8000cba:	2204      	movs	r2, #4
 8000cbc:	709a      	strb	r2, [r3, #2]
	GPIO_Pin.GPIO_OUTPUT_Speed = GPIO_speed_10M;
 8000cbe:	4b11      	ldr	r3, [pc, #68]	; (8000d04 <Set_GPIO_pins+0x50>)
 8000cc0:	2201      	movs	r2, #1
 8000cc2:	70da      	strb	r2, [r3, #3]



#ifdef HALF_Controle_2_Channel
	// Left_Motors				Front
	GPIO_Pin.pinNumber = Left_Motors_Front;
 8000cc4:	4b0f      	ldr	r3, [pc, #60]	; (8000d04 <Set_GPIO_pins+0x50>)
 8000cc6:	f44f 7280 	mov.w	r2, #256	; 0x100
 8000cca:	801a      	strh	r2, [r3, #0]
	MCAL_GPIO_Init(GPIOB,&GPIO_Pin);
 8000ccc:	490d      	ldr	r1, [pc, #52]	; (8000d04 <Set_GPIO_pins+0x50>)
 8000cce:	480e      	ldr	r0, [pc, #56]	; (8000d08 <Set_GPIO_pins+0x54>)
 8000cd0:	f000 fdf8 	bl	80018c4 <MCAL_GPIO_Init>

	// Left_Motors  			 Back
	GPIO_Pin.pinNumber = Left_Motors_Back;
 8000cd4:	4b0b      	ldr	r3, [pc, #44]	; (8000d04 <Set_GPIO_pins+0x50>)
 8000cd6:	f44f 7200 	mov.w	r2, #512	; 0x200
 8000cda:	801a      	strh	r2, [r3, #0]
	MCAL_GPIO_Init(GPIOB,&GPIO_Pin);
 8000cdc:	4909      	ldr	r1, [pc, #36]	; (8000d04 <Set_GPIO_pins+0x50>)
 8000cde:	480a      	ldr	r0, [pc, #40]	; (8000d08 <Set_GPIO_pins+0x54>)
 8000ce0:	f000 fdf0 	bl	80018c4 <MCAL_GPIO_Init>

	// Right_Motors				Front
	GPIO_Pin.pinNumber = Right_Motors_Front;
 8000ce4:	4b07      	ldr	r3, [pc, #28]	; (8000d04 <Set_GPIO_pins+0x50>)
 8000ce6:	2280      	movs	r2, #128	; 0x80
 8000ce8:	801a      	strh	r2, [r3, #0]
	MCAL_GPIO_Init(GPIOB,&GPIO_Pin);
 8000cea:	4906      	ldr	r1, [pc, #24]	; (8000d04 <Set_GPIO_pins+0x50>)
 8000cec:	4806      	ldr	r0, [pc, #24]	; (8000d08 <Set_GPIO_pins+0x54>)
 8000cee:	f000 fde9 	bl	80018c4 <MCAL_GPIO_Init>

	// Right_Motors				Back
	GPIO_Pin.pinNumber = Right_Motors_Back;
 8000cf2:	4b04      	ldr	r3, [pc, #16]	; (8000d04 <Set_GPIO_pins+0x50>)
 8000cf4:	2240      	movs	r2, #64	; 0x40
 8000cf6:	801a      	strh	r2, [r3, #0]
	MCAL_GPIO_Init(GPIOB,&GPIO_Pin);
 8000cf8:	4902      	ldr	r1, [pc, #8]	; (8000d04 <Set_GPIO_pins+0x50>)
 8000cfa:	4803      	ldr	r0, [pc, #12]	; (8000d08 <Set_GPIO_pins+0x54>)
 8000cfc:	f000 fde2 	bl	80018c4 <MCAL_GPIO_Init>
	GPIO_Pin.pinNumber = Motor4_Back;
	MCAL_GPIO_Init(GPIOB,&GPIO_Pin);

#endif

}
 8000d00:	bf00      	nop
 8000d02:	bd80      	pop	{r7, pc}
 8000d04:	20000030 	.word	0x20000030
 8000d08:	40010c00 	.word	0x40010c00

08000d0c <HAL_DC_Motors_init>:



void HAL_DC_Motors_init(void)
{
 8000d0c:	b580      	push	{r7, lr}
 8000d0e:	af00      	add	r7, sp, #0
	Timer2.MODE = TIMx_MODE_PWM1;
 8000d10:	4b0c      	ldr	r3, [pc, #48]	; (8000d44 <HAL_DC_Motors_init+0x38>)
 8000d12:	2200      	movs	r2, #0
 8000d14:	801a      	strh	r2, [r3, #0]
	Timer2.COUNT_MODE = TIMx_COUNT_MODE_UP;
 8000d16:	4b0b      	ldr	r3, [pc, #44]	; (8000d44 <HAL_DC_Motors_init+0x38>)
 8000d18:	2200      	movs	r2, #0
 8000d1a:	805a      	strh	r2, [r3, #2]
	Timer2.Prescalers =7;      // 1M
 8000d1c:	4b09      	ldr	r3, [pc, #36]	; (8000d44 <HAL_DC_Motors_init+0x38>)
 8000d1e:	2207      	movs	r2, #7
 8000d20:	809a      	strh	r2, [r3, #4]

#endif

#ifdef HALF_Controle_2_Channel
	// set Channel 1 as an Alternative output with speed 10M
	MCAL_TIMx_Init(TIM2, &Timer2, Left_Motors);
 8000d22:	2201      	movs	r2, #1
 8000d24:	4907      	ldr	r1, [pc, #28]	; (8000d44 <HAL_DC_Motors_init+0x38>)
 8000d26:	f04f 4080 	mov.w	r0, #1073741824	; 0x40000000
 8000d2a:	f000 ff9d 	bl	8001c68 <MCAL_TIMx_Init>

	// set Channel 2 as an Alternative output with speed 10M
	MCAL_TIMx_Init(TIM2, &Timer2, Right_Motors);
 8000d2e:	2203      	movs	r2, #3
 8000d30:	4904      	ldr	r1, [pc, #16]	; (8000d44 <HAL_DC_Motors_init+0x38>)
 8000d32:	f04f 4080 	mov.w	r0, #1073741824	; 0x40000000
 8000d36:	f000 ff97 	bl	8001c68 <MCAL_TIMx_Init>
#endif

	Set_GPIO_pins();
 8000d3a:	f7ff ffbb 	bl	8000cb4 <Set_GPIO_pins>
}
 8000d3e:	bf00      	nop
 8000d40:	bd80      	pop	{r7, pc}
 8000d42:	bf00      	nop
 8000d44:	20000020 	.word	0x20000020

08000d48 <Car_Rotation_Object>:

void Car_Rotation_Object(uint8_t direction , uint32_t del)
{
 8000d48:	b580      	push	{r7, lr}
 8000d4a:	b082      	sub	sp, #8
 8000d4c:	af00      	add	r7, sp, #0
 8000d4e:	4603      	mov	r3, r0
 8000d50:	6039      	str	r1, [r7, #0]
 8000d52:	71fb      	strb	r3, [r7, #7]
	if(direction == HAL_Car_TurnRight)
 8000d54:	79fb      	ldrb	r3, [r7, #7]
 8000d56:	2b00      	cmp	r3, #0
 8000d58:	d128      	bne.n	8000dac <Car_Rotation_Object+0x64>
	{
		// Right Motors will move forward
		MCAL_GPIO_WritePin(GPIOB,Right_Motors_Front,GPIO_PIN_SET);
 8000d5a:	2201      	movs	r2, #1
 8000d5c:	2180      	movs	r1, #128	; 0x80
 8000d5e:	482b      	ldr	r0, [pc, #172]	; (8000e0c <Car_Rotation_Object+0xc4>)
 8000d60:	f000 fe2f 	bl	80019c2 <MCAL_GPIO_WritePin>
		MCAL_GPIO_WritePin(GPIOB,Right_Motors_Back,GPIO_PIN_RESET);
 8000d64:	2200      	movs	r2, #0
 8000d66:	2140      	movs	r1, #64	; 0x40
 8000d68:	4828      	ldr	r0, [pc, #160]	; (8000e0c <Car_Rotation_Object+0xc4>)
 8000d6a:	f000 fe2a 	bl	80019c2 <MCAL_GPIO_WritePin>
		// Left Motors will move backward
		MCAL_GPIO_WritePin(GPIOB,Left_Motors_Back,GPIO_PIN_RESET);
 8000d6e:	2200      	movs	r2, #0
 8000d70:	f44f 7100 	mov.w	r1, #512	; 0x200
 8000d74:	4825      	ldr	r0, [pc, #148]	; (8000e0c <Car_Rotation_Object+0xc4>)
 8000d76:	f000 fe24 	bl	80019c2 <MCAL_GPIO_WritePin>
		MCAL_GPIO_WritePin(GPIOB,Left_Motors_Front,GPIO_PIN_SET);
 8000d7a:	2201      	movs	r2, #1
 8000d7c:	f44f 7180 	mov.w	r1, #256	; 0x100
 8000d80:	4822      	ldr	r0, [pc, #136]	; (8000e0c <Car_Rotation_Object+0xc4>)
 8000d82:	f000 fe1e 	bl	80019c2 <MCAL_GPIO_WritePin>

		// by iteration angle
		MCAL_TIMx_Set_Compare_Value(TIM2,_Duty_Cycle(30),Right_Motors);
 8000d86:	2203      	movs	r2, #3
 8000d88:	f243 61b0 	movw	r1, #14000	; 0x36b0
 8000d8c:	f04f 4080 	mov.w	r0, #1073741824	; 0x40000000
 8000d90:	f001 f932 	bl	8001ff8 <MCAL_TIMx_Set_Compare_Value>
		MCAL_TIMx_Set_Compare_Value(TIM2,_Duty_Cycle(30),Left_Motors);
 8000d94:	2201      	movs	r2, #1
 8000d96:	f243 61b0 	movw	r1, #14000	; 0x36b0
 8000d9a:	f04f 4080 	mov.w	r0, #1073741824	; 0x40000000
 8000d9e:	f001 f92b 	bl	8001ff8 <MCAL_TIMx_Set_Compare_Value>
		delay_ms(del);
 8000da2:	683b      	ldr	r3, [r7, #0]
 8000da4:	4618      	mov	r0, r3
 8000da6:	f000 fb0b 	bl	80013c0 <delay_ms>
		MCAL_TIMx_Set_Compare_Value(TIM2,_Duty_Cycle(30),Left_Motors);
		MCAL_TIMx_Set_Compare_Value(TIM2,_Duty_Cycle(30),Right_Motors);
		delay_ms(del);

	}
}
 8000daa:	e02a      	b.n	8000e02 <Car_Rotation_Object+0xba>
	else if(direction == HAL_Car_TurnLeft)
 8000dac:	79fb      	ldrb	r3, [r7, #7]
 8000dae:	2b01      	cmp	r3, #1
 8000db0:	d127      	bne.n	8000e02 <Car_Rotation_Object+0xba>
		MCAL_GPIO_WritePin(GPIOB,Left_Motors_Front,GPIO_PIN_RESET);
 8000db2:	2200      	movs	r2, #0
 8000db4:	f44f 7180 	mov.w	r1, #256	; 0x100
 8000db8:	4814      	ldr	r0, [pc, #80]	; (8000e0c <Car_Rotation_Object+0xc4>)
 8000dba:	f000 fe02 	bl	80019c2 <MCAL_GPIO_WritePin>
		MCAL_GPIO_WritePin(GPIOB,Left_Motors_Back,GPIO_PIN_SET);
 8000dbe:	2201      	movs	r2, #1
 8000dc0:	f44f 7100 	mov.w	r1, #512	; 0x200
 8000dc4:	4811      	ldr	r0, [pc, #68]	; (8000e0c <Car_Rotation_Object+0xc4>)
 8000dc6:	f000 fdfc 	bl	80019c2 <MCAL_GPIO_WritePin>
		MCAL_GPIO_WritePin(GPIOB,Right_Motors_Back,GPIO_PIN_SET);
 8000dca:	2201      	movs	r2, #1
 8000dcc:	2140      	movs	r1, #64	; 0x40
 8000dce:	480f      	ldr	r0, [pc, #60]	; (8000e0c <Car_Rotation_Object+0xc4>)
 8000dd0:	f000 fdf7 	bl	80019c2 <MCAL_GPIO_WritePin>
		MCAL_GPIO_WritePin(GPIOB,Right_Motors_Front,GPIO_PIN_RESET);
 8000dd4:	2200      	movs	r2, #0
 8000dd6:	2180      	movs	r1, #128	; 0x80
 8000dd8:	480c      	ldr	r0, [pc, #48]	; (8000e0c <Car_Rotation_Object+0xc4>)
 8000dda:	f000 fdf2 	bl	80019c2 <MCAL_GPIO_WritePin>
		MCAL_TIMx_Set_Compare_Value(TIM2,_Duty_Cycle(30),Left_Motors);
 8000dde:	2201      	movs	r2, #1
 8000de0:	f243 61b0 	movw	r1, #14000	; 0x36b0
 8000de4:	f04f 4080 	mov.w	r0, #1073741824	; 0x40000000
 8000de8:	f001 f906 	bl	8001ff8 <MCAL_TIMx_Set_Compare_Value>
		MCAL_TIMx_Set_Compare_Value(TIM2,_Duty_Cycle(30),Right_Motors);
 8000dec:	2203      	movs	r2, #3
 8000dee:	f243 61b0 	movw	r1, #14000	; 0x36b0
 8000df2:	f04f 4080 	mov.w	r0, #1073741824	; 0x40000000
 8000df6:	f001 f8ff 	bl	8001ff8 <MCAL_TIMx_Set_Compare_Value>
		delay_ms(del);
 8000dfa:	683b      	ldr	r3, [r7, #0]
 8000dfc:	4618      	mov	r0, r3
 8000dfe:	f000 fadf 	bl	80013c0 <delay_ms>
}
 8000e02:	bf00      	nop
 8000e04:	3708      	adds	r7, #8
 8000e06:	46bd      	mov	sp, r7
 8000e08:	bd80      	pop	{r7, pc}
 8000e0a:	bf00      	nop
 8000e0c:	40010c00 	.word	0x40010c00

08000e10 <Car_Move>:
}



void Car_Move(uint8_t speed , uint32_t distance)
{
 8000e10:	b580      	push	{r7, lr}
 8000e12:	b082      	sub	sp, #8
 8000e14:	af00      	add	r7, sp, #0
 8000e16:	4603      	mov	r3, r0
 8000e18:	6039      	str	r1, [r7, #0]
 8000e1a:	71fb      	strb	r3, [r7, #7]
#endif


#ifdef HALF_Controle_2_Channel

	MCAL_GPIO_WritePin(GPIOB,Left_Motors_Front,GPIO_PIN_RESET);
 8000e1c:	2200      	movs	r2, #0
 8000e1e:	f44f 7180 	mov.w	r1, #256	; 0x100
 8000e22:	4823      	ldr	r0, [pc, #140]	; (8000eb0 <Car_Move+0xa0>)
 8000e24:	f000 fdcd 	bl	80019c2 <MCAL_GPIO_WritePin>
	MCAL_GPIO_WritePin(GPIOB,Left_Motors_Back,GPIO_PIN_SET);
 8000e28:	2201      	movs	r2, #1
 8000e2a:	f44f 7100 	mov.w	r1, #512	; 0x200
 8000e2e:	4820      	ldr	r0, [pc, #128]	; (8000eb0 <Car_Move+0xa0>)
 8000e30:	f000 fdc7 	bl	80019c2 <MCAL_GPIO_WritePin>

	MCAL_GPIO_WritePin(GPIOB,Right_Motors_Front,GPIO_PIN_SET);
 8000e34:	2201      	movs	r2, #1
 8000e36:	2180      	movs	r1, #128	; 0x80
 8000e38:	481d      	ldr	r0, [pc, #116]	; (8000eb0 <Car_Move+0xa0>)
 8000e3a:	f000 fdc2 	bl	80019c2 <MCAL_GPIO_WritePin>
	MCAL_GPIO_WritePin(GPIOB,Right_Motors_Back,GPIO_PIN_RESET);
 8000e3e:	2200      	movs	r2, #0
 8000e40:	2140      	movs	r1, #64	; 0x40
 8000e42:	481b      	ldr	r0, [pc, #108]	; (8000eb0 <Car_Move+0xa0>)
 8000e44:	f000 fdbd 	bl	80019c2 <MCAL_GPIO_WritePin>

	//uint8_t b = speed - ;

	// by iteration set duty cycle to specific speed
	MCAL_TIMx_Set_Compare_Value(TIM2,_Duty_Cycle(speed),Left_Motors);	// prefered left - > 40 duty , right -> 70 duty cycle
 8000e48:	79fb      	ldrb	r3, [r7, #7]
 8000e4a:	b29b      	uxth	r3, r3
 8000e4c:	461a      	mov	r2, r3
 8000e4e:	0092      	lsls	r2, r2, #2
 8000e50:	4413      	add	r3, r2
 8000e52:	461a      	mov	r2, r3
 8000e54:	0091      	lsls	r1, r2, #2
 8000e56:	461a      	mov	r2, r3
 8000e58:	460b      	mov	r3, r1
 8000e5a:	4413      	add	r3, r2
 8000e5c:	00db      	lsls	r3, r3, #3
 8000e5e:	b29b      	uxth	r3, r3
 8000e60:	f5c3 439c 	rsb	r3, r3, #19968	; 0x4e00
 8000e64:	3320      	adds	r3, #32
 8000e66:	b29b      	uxth	r3, r3
 8000e68:	2201      	movs	r2, #1
 8000e6a:	4619      	mov	r1, r3
 8000e6c:	f04f 4080 	mov.w	r0, #1073741824	; 0x40000000
 8000e70:	f001 f8c2 	bl	8001ff8 <MCAL_TIMx_Set_Compare_Value>
	MCAL_TIMx_Set_Compare_Value(TIM2,_Duty_Cycle(speed),Right_Motors);
 8000e74:	79fb      	ldrb	r3, [r7, #7]
 8000e76:	b29b      	uxth	r3, r3
 8000e78:	461a      	mov	r2, r3
 8000e7a:	0092      	lsls	r2, r2, #2
 8000e7c:	4413      	add	r3, r2
 8000e7e:	461a      	mov	r2, r3
 8000e80:	0091      	lsls	r1, r2, #2
 8000e82:	461a      	mov	r2, r3
 8000e84:	460b      	mov	r3, r1
 8000e86:	4413      	add	r3, r2
 8000e88:	00db      	lsls	r3, r3, #3
 8000e8a:	b29b      	uxth	r3, r3
 8000e8c:	f5c3 439c 	rsb	r3, r3, #19968	; 0x4e00
 8000e90:	3320      	adds	r3, #32
 8000e92:	b29b      	uxth	r3, r3
 8000e94:	2203      	movs	r2, #3
 8000e96:	4619      	mov	r1, r3
 8000e98:	f04f 4080 	mov.w	r0, #1073741824	; 0x40000000
 8000e9c:	f001 f8ac 	bl	8001ff8 <MCAL_TIMx_Set_Compare_Value>
	//delay_ms(distance);

#endif
	// by iteration set delay to specific distance
	delay_ms(distance);
 8000ea0:	683b      	ldr	r3, [r7, #0]
 8000ea2:	4618      	mov	r0, r3
 8000ea4:	f000 fa8c 	bl	80013c0 <delay_ms>

	// stop the movement
//	Car_Stop_Moving();


}
 8000ea8:	bf00      	nop
 8000eaa:	3708      	adds	r7, #8
 8000eac:	46bd      	mov	sp, r7
 8000eae:	bd80      	pop	{r7, pc}
 8000eb0:	40010c00 	.word	0x40010c00

08000eb4 <HAL_Flame_init>:

ADC_config_t ADC_Pin;


void HAL_Flame_init(void)
{
 8000eb4:	b580      	push	{r7, lr}
 8000eb6:	b082      	sub	sp, #8
 8000eb8:	af00      	add	r7, sp, #0
	GPIO_Pinconfig_t pinconfig ;
	pinconfig.GPIO_MODE = GPIO_MODE_Analog  ;
 8000eba:	2300      	movs	r3, #0
 8000ebc:	71bb      	strb	r3, [r7, #6]
	pinconfig.pinNumber = GPIO_PIN_0 ;
 8000ebe:	2301      	movs	r3, #1
 8000ec0:	80bb      	strh	r3, [r7, #4]
	MCAL_GPIO_Init(GPIOA, &pinconfig) ;
 8000ec2:	1d3b      	adds	r3, r7, #4
 8000ec4:	4619      	mov	r1, r3
 8000ec6:	484a      	ldr	r0, [pc, #296]	; (8000ff0 <HAL_Flame_init+0x13c>)
 8000ec8:	f000 fcfc 	bl	80018c4 <MCAL_GPIO_Init>

	pinconfig.GPIO_MODE = GPIO_MODE_Analog  ;
 8000ecc:	2300      	movs	r3, #0
 8000ece:	71bb      	strb	r3, [r7, #6]
	pinconfig.pinNumber = GPIO_PIN_2 ;
 8000ed0:	2304      	movs	r3, #4
 8000ed2:	80bb      	strh	r3, [r7, #4]
	MCAL_GPIO_Init(GPIOA, &pinconfig) ;
 8000ed4:	1d3b      	adds	r3, r7, #4
 8000ed6:	4619      	mov	r1, r3
 8000ed8:	4845      	ldr	r0, [pc, #276]	; (8000ff0 <HAL_Flame_init+0x13c>)
 8000eda:	f000 fcf3 	bl	80018c4 <MCAL_GPIO_Init>

	pinconfig.GPIO_MODE = GPIO_MODE_Analog  ;
 8000ede:	2300      	movs	r3, #0
 8000ee0:	71bb      	strb	r3, [r7, #6]
	pinconfig.pinNumber = GPIO_PIN_4 ;
 8000ee2:	2310      	movs	r3, #16
 8000ee4:	80bb      	strh	r3, [r7, #4]
	MCAL_GPIO_Init(GPIOA, &pinconfig) ;
 8000ee6:	1d3b      	adds	r3, r7, #4
 8000ee8:	4619      	mov	r1, r3
 8000eea:	4841      	ldr	r0, [pc, #260]	; (8000ff0 <HAL_Flame_init+0x13c>)
 8000eec:	f000 fcea 	bl	80018c4 <MCAL_GPIO_Init>

	pinconfig.GPIO_MODE = GPIO_MODE_Analog  ;
 8000ef0:	2300      	movs	r3, #0
 8000ef2:	71bb      	strb	r3, [r7, #6]
	pinconfig.pinNumber = GPIO_PIN_5 ;
 8000ef4:	2320      	movs	r3, #32
 8000ef6:	80bb      	strh	r3, [r7, #4]
	MCAL_GPIO_Init(GPIOA, &pinconfig) ;
 8000ef8:	1d3b      	adds	r3, r7, #4
 8000efa:	4619      	mov	r1, r3
 8000efc:	483c      	ldr	r0, [pc, #240]	; (8000ff0 <HAL_Flame_init+0x13c>)
 8000efe:	f000 fce1 	bl	80018c4 <MCAL_GPIO_Init>

	pinconfig.GPIO_MODE = GPIO_MODE_Analog  ;
 8000f02:	2300      	movs	r3, #0
 8000f04:	71bb      	strb	r3, [r7, #6]
	pinconfig.pinNumber = GPIO_PIN_7 ;
 8000f06:	2380      	movs	r3, #128	; 0x80
 8000f08:	80bb      	strh	r3, [r7, #4]
	MCAL_GPIO_Init(GPIOA, &pinconfig) ;
 8000f0a:	1d3b      	adds	r3, r7, #4
 8000f0c:	4619      	mov	r1, r3
 8000f0e:	4838      	ldr	r0, [pc, #224]	; (8000ff0 <HAL_Flame_init+0x13c>)
 8000f10:	f000 fcd8 	bl	80018c4 <MCAL_GPIO_Init>

	pinconfig.GPIO_MODE = GPIO_MODE_Analog  ;
 8000f14:	2300      	movs	r3, #0
 8000f16:	71bb      	strb	r3, [r7, #6]
	pinconfig.pinNumber = GPIO_PIN_0 ;
 8000f18:	2301      	movs	r3, #1
 8000f1a:	80bb      	strh	r3, [r7, #4]
	MCAL_GPIO_Init(GPIOB, &pinconfig) ;
 8000f1c:	1d3b      	adds	r3, r7, #4
 8000f1e:	4619      	mov	r1, r3
 8000f20:	4834      	ldr	r0, [pc, #208]	; (8000ff4 <HAL_Flame_init+0x140>)
 8000f22:	f000 fccf 	bl	80018c4 <MCAL_GPIO_Init>

	ADC_Pin.MODE=ADC_MODE_Single;
 8000f26:	4b34      	ldr	r3, [pc, #208]	; (8000ff8 <HAL_Flame_init+0x144>)
 8000f28:	2200      	movs	r2, #0
 8000f2a:	601a      	str	r2, [r3, #0]
	ADC_Pin.Data_alignment=ADC_Data_alignment_Right;
 8000f2c:	4b32      	ldr	r3, [pc, #200]	; (8000ff8 <HAL_Flame_init+0x144>)
 8000f2e:	f46f 6200 	mvn.w	r2, #2048	; 0x800
 8000f32:	609a      	str	r2, [r3, #8]
	ADC_Pin.sampling_time=ADC_sampling_time_1_5;
 8000f34:	4b30      	ldr	r3, [pc, #192]	; (8000ff8 <HAL_Flame_init+0x144>)
 8000f36:	2200      	movs	r2, #0
 8000f38:	611a      	str	r2, [r3, #16]
	ADC_Pin.Channel=Ch0;
 8000f3a:	4b2f      	ldr	r3, [pc, #188]	; (8000ff8 <HAL_Flame_init+0x144>)
 8000f3c:	2200      	movs	r2, #0
 8000f3e:	711a      	strb	r2, [r3, #4]
	MCAL_ADC_Init(&ADC_Pin);
 8000f40:	482d      	ldr	r0, [pc, #180]	; (8000ff8 <HAL_Flame_init+0x144>)
 8000f42:	f000 fa67 	bl	8001414 <MCAL_ADC_Init>
	ADC_Pin.MODE=ADC_MODE_Single;
 8000f46:	4b2c      	ldr	r3, [pc, #176]	; (8000ff8 <HAL_Flame_init+0x144>)
 8000f48:	2200      	movs	r2, #0
 8000f4a:	601a      	str	r2, [r3, #0]
	ADC_Pin.Data_alignment=ADC_Data_alignment_Right;
 8000f4c:	4b2a      	ldr	r3, [pc, #168]	; (8000ff8 <HAL_Flame_init+0x144>)
 8000f4e:	f46f 6200 	mvn.w	r2, #2048	; 0x800
 8000f52:	609a      	str	r2, [r3, #8]
	ADC_Pin.sampling_time=ADC_sampling_time_1_5;
 8000f54:	4b28      	ldr	r3, [pc, #160]	; (8000ff8 <HAL_Flame_init+0x144>)
 8000f56:	2200      	movs	r2, #0
 8000f58:	611a      	str	r2, [r3, #16]
	ADC_Pin.Channel=Ch2;
 8000f5a:	4b27      	ldr	r3, [pc, #156]	; (8000ff8 <HAL_Flame_init+0x144>)
 8000f5c:	2202      	movs	r2, #2
 8000f5e:	711a      	strb	r2, [r3, #4]
        MCAL_ADC_Init(&ADC_Pin);
 8000f60:	4825      	ldr	r0, [pc, #148]	; (8000ff8 <HAL_Flame_init+0x144>)
 8000f62:	f000 fa57 	bl	8001414 <MCAL_ADC_Init>
	ADC_Pin.MODE=ADC_MODE_Single;
 8000f66:	4b24      	ldr	r3, [pc, #144]	; (8000ff8 <HAL_Flame_init+0x144>)
 8000f68:	2200      	movs	r2, #0
 8000f6a:	601a      	str	r2, [r3, #0]
	ADC_Pin.Data_alignment=ADC_Data_alignment_Right;
 8000f6c:	4b22      	ldr	r3, [pc, #136]	; (8000ff8 <HAL_Flame_init+0x144>)
 8000f6e:	f46f 6200 	mvn.w	r2, #2048	; 0x800
 8000f72:	609a      	str	r2, [r3, #8]
	ADC_Pin.sampling_time=ADC_sampling_time_1_5;
 8000f74:	4b20      	ldr	r3, [pc, #128]	; (8000ff8 <HAL_Flame_init+0x144>)
 8000f76:	2200      	movs	r2, #0
 8000f78:	611a      	str	r2, [r3, #16]
	ADC_Pin.Channel=Ch4;
 8000f7a:	4b1f      	ldr	r3, [pc, #124]	; (8000ff8 <HAL_Flame_init+0x144>)
 8000f7c:	2204      	movs	r2, #4
 8000f7e:	711a      	strb	r2, [r3, #4]
	MCAL_ADC_Init(&ADC_Pin);
 8000f80:	481d      	ldr	r0, [pc, #116]	; (8000ff8 <HAL_Flame_init+0x144>)
 8000f82:	f000 fa47 	bl	8001414 <MCAL_ADC_Init>
	ADC_Pin.MODE=ADC_MODE_Single;
 8000f86:	4b1c      	ldr	r3, [pc, #112]	; (8000ff8 <HAL_Flame_init+0x144>)
 8000f88:	2200      	movs	r2, #0
 8000f8a:	601a      	str	r2, [r3, #0]
	ADC_Pin.Data_alignment=ADC_Data_alignment_Right;
 8000f8c:	4b1a      	ldr	r3, [pc, #104]	; (8000ff8 <HAL_Flame_init+0x144>)
 8000f8e:	f46f 6200 	mvn.w	r2, #2048	; 0x800
 8000f92:	609a      	str	r2, [r3, #8]
	ADC_Pin.sampling_time=ADC_sampling_time_1_5;
 8000f94:	4b18      	ldr	r3, [pc, #96]	; (8000ff8 <HAL_Flame_init+0x144>)
 8000f96:	2200      	movs	r2, #0
 8000f98:	611a      	str	r2, [r3, #16]
	ADC_Pin.Channel=Ch5;
 8000f9a:	4b17      	ldr	r3, [pc, #92]	; (8000ff8 <HAL_Flame_init+0x144>)
 8000f9c:	2205      	movs	r2, #5
 8000f9e:	711a      	strb	r2, [r3, #4]
	MCAL_ADC_Init(&ADC_Pin);
 8000fa0:	4815      	ldr	r0, [pc, #84]	; (8000ff8 <HAL_Flame_init+0x144>)
 8000fa2:	f000 fa37 	bl	8001414 <MCAL_ADC_Init>
	ADC_Pin.MODE=ADC_MODE_Single;
 8000fa6:	4b14      	ldr	r3, [pc, #80]	; (8000ff8 <HAL_Flame_init+0x144>)
 8000fa8:	2200      	movs	r2, #0
 8000faa:	601a      	str	r2, [r3, #0]
	ADC_Pin.Data_alignment=ADC_Data_alignment_Right;
 8000fac:	4b12      	ldr	r3, [pc, #72]	; (8000ff8 <HAL_Flame_init+0x144>)
 8000fae:	f46f 6200 	mvn.w	r2, #2048	; 0x800
 8000fb2:	609a      	str	r2, [r3, #8]
	ADC_Pin.sampling_time=ADC_sampling_time_1_5;
 8000fb4:	4b10      	ldr	r3, [pc, #64]	; (8000ff8 <HAL_Flame_init+0x144>)
 8000fb6:	2200      	movs	r2, #0
 8000fb8:	611a      	str	r2, [r3, #16]
	ADC_Pin.Channel=Ch6;
 8000fba:	4b0f      	ldr	r3, [pc, #60]	; (8000ff8 <HAL_Flame_init+0x144>)
 8000fbc:	2206      	movs	r2, #6
 8000fbe:	711a      	strb	r2, [r3, #4]
	MCAL_ADC_Init(&ADC_Pin);
 8000fc0:	480d      	ldr	r0, [pc, #52]	; (8000ff8 <HAL_Flame_init+0x144>)
 8000fc2:	f000 fa27 	bl	8001414 <MCAL_ADC_Init>
	ADC_Pin.MODE=ADC_MODE_Single;
 8000fc6:	4b0c      	ldr	r3, [pc, #48]	; (8000ff8 <HAL_Flame_init+0x144>)
 8000fc8:	2200      	movs	r2, #0
 8000fca:	601a      	str	r2, [r3, #0]
	ADC_Pin.Data_alignment=ADC_Data_alignment_Right;
 8000fcc:	4b0a      	ldr	r3, [pc, #40]	; (8000ff8 <HAL_Flame_init+0x144>)
 8000fce:	f46f 6200 	mvn.w	r2, #2048	; 0x800
 8000fd2:	609a      	str	r2, [r3, #8]
	ADC_Pin.sampling_time=ADC_sampling_time_1_5;
 8000fd4:	4b08      	ldr	r3, [pc, #32]	; (8000ff8 <HAL_Flame_init+0x144>)
 8000fd6:	2200      	movs	r2, #0
 8000fd8:	611a      	str	r2, [r3, #16]
	ADC_Pin.Channel=Ch7;
 8000fda:	4b07      	ldr	r3, [pc, #28]	; (8000ff8 <HAL_Flame_init+0x144>)
 8000fdc:	2207      	movs	r2, #7
 8000fde:	711a      	strb	r2, [r3, #4]
	MCAL_ADC_Init(&ADC_Pin);
 8000fe0:	4805      	ldr	r0, [pc, #20]	; (8000ff8 <HAL_Flame_init+0x144>)
 8000fe2:	f000 fa17 	bl	8001414 <MCAL_ADC_Init>
}
 8000fe6:	bf00      	nop
 8000fe8:	3708      	adds	r7, #8
 8000fea:	46bd      	mov	sp, r7
 8000fec:	bd80      	pop	{r7, pc}
 8000fee:	bf00      	nop
 8000ff0:	40010800 	.word	0x40010800
 8000ff4:	40010c00 	.word	0x40010c00
 8000ff8:	20000034 	.word	0x20000034

08000ffc <Flame_Frontmid_Read>:
int Flame_Frontmid_Read()
{
 8000ffc:	b580      	push	{r7, lr}
 8000ffe:	af00      	add	r7, sp, #0
	return MCAL_ADC_Read(Ch0);
 8001000:	2000      	movs	r0, #0
 8001002:	f000 fa77 	bl	80014f4 <MCAL_ADC_Read>
 8001006:	4603      	mov	r3, r0
}
 8001008:	4618      	mov	r0, r3
 800100a:	bd80      	pop	{r7, pc}

0800100c <Flame_FrontRight_Read>:
int Flame_FrontRight_Read()
{
 800100c:	b580      	push	{r7, lr}
 800100e:	af00      	add	r7, sp, #0
	return MCAL_ADC_Read(Ch2);
 8001010:	2002      	movs	r0, #2
 8001012:	f000 fa6f 	bl	80014f4 <MCAL_ADC_Read>
 8001016:	4603      	mov	r3, r0
}
 8001018:	4618      	mov	r0, r3
 800101a:	bd80      	pop	{r7, pc}

0800101c <Flame_FrontLeft_Read>:
int Flame_FrontLeft_Read()
{
 800101c:	b580      	push	{r7, lr}
 800101e:	af00      	add	r7, sp, #0
	return MCAL_ADC_Read(Ch4);
 8001020:	2004      	movs	r0, #4
 8001022:	f000 fa67 	bl	80014f4 <MCAL_ADC_Read>
 8001026:	4603      	mov	r3, r0
}
 8001028:	4618      	mov	r0, r3
 800102a:	bd80      	pop	{r7, pc}

0800102c <Flame_Back_Read>:
int Flame_Back_Read()
{
 800102c:	b580      	push	{r7, lr}
 800102e:	af00      	add	r7, sp, #0
	return MCAL_ADC_Read(Ch5);
 8001030:	2005      	movs	r0, #5
 8001032:	f000 fa5f 	bl	80014f4 <MCAL_ADC_Read>
 8001036:	4603      	mov	r3, r0
}
 8001038:	4618      	mov	r0, r3
 800103a:	bd80      	pop	{r7, pc}

0800103c <Flame_Right_Read>:
int Flame_Right_Read()
{
 800103c:	b580      	push	{r7, lr}
 800103e:	af00      	add	r7, sp, #0
	return MCAL_ADC_Read(Ch6);///
 8001040:	2006      	movs	r0, #6
 8001042:	f000 fa57 	bl	80014f4 <MCAL_ADC_Read>
 8001046:	4603      	mov	r3, r0
}
 8001048:	4618      	mov	r0, r3
 800104a:	bd80      	pop	{r7, pc}

0800104c <Flame_Left_Read>:
int Flame_Left_Read()
{
 800104c:	b580      	push	{r7, lr}
 800104e:	af00      	add	r7, sp, #0
	return MCAL_ADC_Read(Ch8);
 8001050:	2008      	movs	r0, #8
 8001052:	f000 fa4f 	bl	80014f4 <MCAL_ADC_Read>
 8001056:	4603      	mov	r3, r0
}
 8001058:	4618      	mov	r0, r3
 800105a:	bd80      	pop	{r7, pc}

0800105c <HAL_Ultrasonic_init>:

static GPIO_Pinconfig_t GPIO_Pin;


void HAL_Ultrasonic_init(void)
{
 800105c:	b580      	push	{r7, lr}
 800105e:	af00      	add	r7, sp, #0
	MCAL_TIM4_CAP_Init();
 8001060:	f000 ff62 	bl	8001f28 <MCAL_TIM4_CAP_Init>
	// set trigger as an output
	GPIO_Pin.GPIO_MODE = GPIO_MODE_OUTPUT_PP;
 8001064:	4b07      	ldr	r3, [pc, #28]	; (8001084 <HAL_Ultrasonic_init+0x28>)
 8001066:	2204      	movs	r2, #4
 8001068:	709a      	strb	r2, [r3, #2]
	GPIO_Pin.GPIO_OUTPUT_Speed = GPIO_speed_10M;
 800106a:	4b06      	ldr	r3, [pc, #24]	; (8001084 <HAL_Ultrasonic_init+0x28>)
 800106c:	2201      	movs	r2, #1
 800106e:	70da      	strb	r2, [r3, #3]
	GPIO_Pin.pinNumber = Trigger_Pin;
 8001070:	4b04      	ldr	r3, [pc, #16]	; (8001084 <HAL_Ultrasonic_init+0x28>)
 8001072:	2220      	movs	r2, #32
 8001074:	801a      	strh	r2, [r3, #0]
	MCAL_GPIO_Init(GPIOB,&GPIO_Pin);
 8001076:	4903      	ldr	r1, [pc, #12]	; (8001084 <HAL_Ultrasonic_init+0x28>)
 8001078:	4803      	ldr	r0, [pc, #12]	; (8001088 <HAL_Ultrasonic_init+0x2c>)
 800107a:	f000 fc23 	bl	80018c4 <MCAL_GPIO_Init>

}
 800107e:	bf00      	nop
 8001080:	bd80      	pop	{r7, pc}
 8001082:	bf00      	nop
 8001084:	2000004c 	.word	0x2000004c
 8001088:	40010c00 	.word	0x40010c00
 800108c:	00000000 	.word	0x00000000

08001090 <Ultrasnic_Read>:

float Ultrasnic_Read(void)
{
 8001090:	b580      	push	{r7, lr}
 8001092:	b082      	sub	sp, #8
 8001094:	af00      	add	r7, sp, #0
	float Distance = 0 ;
 8001096:	f04f 0300 	mov.w	r3, #0
 800109a:	607b      	str	r3, [r7, #4]

	//trigger pulse for 10ms to start the ultrasonic
	MCAL_GPIO_WritePin(PORT, Trigger_Pin, GPIO_PIN_SET);
 800109c:	2201      	movs	r2, #1
 800109e:	2120      	movs	r1, #32
 80010a0:	4813      	ldr	r0, [pc, #76]	; (80010f0 <Ultrasnic_Read+0x60>)
 80010a2:	f000 fc8e 	bl	80019c2 <MCAL_GPIO_WritePin>
	delay_ms(10);
 80010a6:	200a      	movs	r0, #10
 80010a8:	f000 f98a 	bl	80013c0 <delay_ms>
	MCAL_GPIO_WritePin(PORT, Trigger_Pin, GPIO_PIN_RESET);
 80010ac:	2200      	movs	r2, #0
 80010ae:	2120      	movs	r1, #32
 80010b0:	480f      	ldr	r0, [pc, #60]	; (80010f0 <Ultrasnic_Read+0x60>)
 80010b2:	f000 fc86 	bl	80019c2 <MCAL_GPIO_WritePin>

	// The speed of sound in free space is 340 m/s = 34000 cm/s
	// the speed = Distance / time
	// the Distance = speed * time = 34000 * time (the time of pulse on ECHO pin)
	Distance = (MCAL_TIM4_CAP_Get_High()/58.3);
 80010b6:	f000 ff5f 	bl	8001f78 <MCAL_TIM4_CAP_Get_High>
 80010ba:	4603      	mov	r3, r0
 80010bc:	4618      	mov	r0, r3
 80010be:	f7ff f9bb 	bl	8000438 <__aeabi_f2d>
 80010c2:	a309      	add	r3, pc, #36	; (adr r3, 80010e8 <Ultrasnic_Read+0x58>)
 80010c4:	e9d3 2300 	ldrd	r2, r3, [r3]
 80010c8:	f7ff fb38 	bl	800073c <__aeabi_ddiv>
 80010cc:	4602      	mov	r2, r0
 80010ce:	460b      	mov	r3, r1
 80010d0:	4610      	mov	r0, r2
 80010d2:	4619      	mov	r1, r3
 80010d4:	f7ff fc1a 	bl	800090c <__aeabi_d2f>
 80010d8:	4603      	mov	r3, r0
 80010da:	607b      	str	r3, [r7, #4]
	return Distance;
 80010dc:	687b      	ldr	r3, [r7, #4]

}
 80010de:	4618      	mov	r0, r3
 80010e0:	3708      	adds	r7, #8
 80010e2:	46bd      	mov	sp, r7
 80010e4:	bd80      	pop	{r7, pc}
 80010e6:	bf00      	nop
 80010e8:	66666666 	.word	0x66666666
 80010ec:	404d2666 	.word	0x404d2666
 80010f0:	40010c00 	.word	0x40010c00

080010f4 <Clock_INIT>:
}Redirection;



void Clock_INIT(void)
{
 80010f4:	b480      	push	{r7}
 80010f6:	af00      	add	r7, sp, #0
	//set on the clock for PORTA
	RCC_GPIOA_CLK_EN();
 80010f8:	4b19      	ldr	r3, [pc, #100]	; (8001160 <Clock_INIT+0x6c>)
 80010fa:	699b      	ldr	r3, [r3, #24]
 80010fc:	4a18      	ldr	r2, [pc, #96]	; (8001160 <Clock_INIT+0x6c>)
 80010fe:	f043 0304 	orr.w	r3, r3, #4
 8001102:	6193      	str	r3, [r2, #24]
	//set on the clock for PORTB
	RCC_GPIOB_CLK_EN();
 8001104:	4b16      	ldr	r3, [pc, #88]	; (8001160 <Clock_INIT+0x6c>)
 8001106:	699b      	ldr	r3, [r3, #24]
 8001108:	4a15      	ldr	r2, [pc, #84]	; (8001160 <Clock_INIT+0x6c>)
 800110a:	f043 0308 	orr.w	r3, r3, #8
 800110e:	6193      	str	r3, [r2, #24]
	//set on the clock for AFIO
	RCC_GPIOC_CLK_EN();
 8001110:	4b13      	ldr	r3, [pc, #76]	; (8001160 <Clock_INIT+0x6c>)
 8001112:	699b      	ldr	r3, [r3, #24]
 8001114:	4a12      	ldr	r2, [pc, #72]	; (8001160 <Clock_INIT+0x6c>)
 8001116:	f043 0310 	orr.w	r3, r3, #16
 800111a:	6193      	str	r3, [r2, #24]
	RCC_AFIO_CLK_EN();
 800111c:	4b10      	ldr	r3, [pc, #64]	; (8001160 <Clock_INIT+0x6c>)
 800111e:	699b      	ldr	r3, [r3, #24]
 8001120:	4a0f      	ldr	r2, [pc, #60]	; (8001160 <Clock_INIT+0x6c>)
 8001122:	f043 0301 	orr.w	r3, r3, #1
 8001126:	6193      	str	r3, [r2, #24]
	RCC_TIM2_CLK_Enable();
 8001128:	4b0d      	ldr	r3, [pc, #52]	; (8001160 <Clock_INIT+0x6c>)
 800112a:	69db      	ldr	r3, [r3, #28]
 800112c:	4a0c      	ldr	r2, [pc, #48]	; (8001160 <Clock_INIT+0x6c>)
 800112e:	f043 0301 	orr.w	r3, r3, #1
 8001132:	61d3      	str	r3, [r2, #28]
	RCC_TIM3_CLK_Enable();
 8001134:	4b0a      	ldr	r3, [pc, #40]	; (8001160 <Clock_INIT+0x6c>)
 8001136:	69db      	ldr	r3, [r3, #28]
 8001138:	4a09      	ldr	r2, [pc, #36]	; (8001160 <Clock_INIT+0x6c>)
 800113a:	f043 0302 	orr.w	r3, r3, #2
 800113e:	61d3      	str	r3, [r2, #28]
	RCC_TIM4_CLK_Enable();
 8001140:	4b07      	ldr	r3, [pc, #28]	; (8001160 <Clock_INIT+0x6c>)
 8001142:	69db      	ldr	r3, [r3, #28]
 8001144:	4a06      	ldr	r2, [pc, #24]	; (8001160 <Clock_INIT+0x6c>)
 8001146:	f043 0304 	orr.w	r3, r3, #4
 800114a:	61d3      	str	r3, [r2, #28]
	RCC_ADC1_CLK_Enable();
 800114c:	4b04      	ldr	r3, [pc, #16]	; (8001160 <Clock_INIT+0x6c>)
 800114e:	699b      	ldr	r3, [r3, #24]
 8001150:	4a03      	ldr	r2, [pc, #12]	; (8001160 <Clock_INIT+0x6c>)
 8001152:	f443 7300 	orr.w	r3, r3, #512	; 0x200
 8001156:	6193      	str	r3, [r2, #24]
}
 8001158:	bf00      	nop
 800115a:	46bd      	mov	sp, r7
 800115c:	bc80      	pop	{r7}
 800115e:	4770      	bx	lr
 8001160:	40021000 	.word	0x40021000

08001164 <Flame_MaxReading>:




Redirection Flame_MaxReading()
{
 8001164:	b580      	push	{r7, lr}
 8001166:	b086      	sub	sp, #24
 8001168:	af00      	add	r7, sp, #0
	int FrontMid = Flame_Frontmid_Read() - (int)Flame_Threshold;
 800116a:	f7ff ff47 	bl	8000ffc <Flame_Frontmid_Read>
 800116e:	4603      	mov	r3, r0
 8001170:	3b28      	subs	r3, #40	; 0x28
 8001172:	617b      	str	r3, [r7, #20]
	int FrontRight = Flame_FrontRight_Read() - (int)Flame_Threshold;
 8001174:	f7ff ff4a 	bl	800100c <Flame_FrontRight_Read>
 8001178:	4603      	mov	r3, r0
 800117a:	3b28      	subs	r3, #40	; 0x28
 800117c:	613b      	str	r3, [r7, #16]
	int FrontLeft = Flame_FrontLeft_Read() - (int)Flame_Threshold;
 800117e:	f7ff ff4d 	bl	800101c <Flame_FrontLeft_Read>
 8001182:	4603      	mov	r3, r0
 8001184:	3b28      	subs	r3, #40	; 0x28
 8001186:	60fb      	str	r3, [r7, #12]
	int Back = Flame_Back_Read() - (int)Flame_Threshold;
 8001188:	f7ff ff50 	bl	800102c <Flame_Back_Read>
 800118c:	4603      	mov	r3, r0
 800118e:	3b28      	subs	r3, #40	; 0x28
 8001190:	60bb      	str	r3, [r7, #8]
	int Right = Flame_Right_Read() - (int)Flame_Threshold;
 8001192:	f7ff ff53 	bl	800103c <Flame_Right_Read>
 8001196:	4603      	mov	r3, r0
 8001198:	3b28      	subs	r3, #40	; 0x28
 800119a:	607b      	str	r3, [r7, #4]
	int Left = Flame_Left_Read() - (int)Flame_Threshold;
 800119c:	f7ff ff56 	bl	800104c <Flame_Left_Read>
 80011a0:	4603      	mov	r3, r0
 80011a2:	3b28      	subs	r3, #40	; 0x28
 80011a4:	603b      	str	r3, [r7, #0]

	if ((FrontMid > FrontRight) && (FrontMid > FrontLeft) && (FrontMid > Back) && (FrontMid > Right) && (FrontMid > Left))
 80011a6:	697a      	ldr	r2, [r7, #20]
 80011a8:	693b      	ldr	r3, [r7, #16]
 80011aa:	429a      	cmp	r2, r3
 80011ac:	dd11      	ble.n	80011d2 <Flame_MaxReading+0x6e>
 80011ae:	697a      	ldr	r2, [r7, #20]
 80011b0:	68fb      	ldr	r3, [r7, #12]
 80011b2:	429a      	cmp	r2, r3
 80011b4:	dd0d      	ble.n	80011d2 <Flame_MaxReading+0x6e>
 80011b6:	697a      	ldr	r2, [r7, #20]
 80011b8:	68bb      	ldr	r3, [r7, #8]
 80011ba:	429a      	cmp	r2, r3
 80011bc:	dd09      	ble.n	80011d2 <Flame_MaxReading+0x6e>
 80011be:	697a      	ldr	r2, [r7, #20]
 80011c0:	687b      	ldr	r3, [r7, #4]
 80011c2:	429a      	cmp	r2, r3
 80011c4:	dd05      	ble.n	80011d2 <Flame_MaxReading+0x6e>
 80011c6:	697a      	ldr	r2, [r7, #20]
 80011c8:	683b      	ldr	r3, [r7, #0]
 80011ca:	429a      	cmp	r2, r3
 80011cc:	dd01      	ble.n	80011d2 <Flame_MaxReading+0x6e>
	{
		return Front_mid_en;
 80011ce:	2300      	movs	r3, #0
 80011d0:	e030      	b.n	8001234 <Flame_MaxReading+0xd0>
	}
	else if ((FrontRight > FrontLeft) && (FrontRight > Back) && (FrontRight > Right) && (FrontRight > Left))
 80011d2:	693a      	ldr	r2, [r7, #16]
 80011d4:	68fb      	ldr	r3, [r7, #12]
 80011d6:	429a      	cmp	r2, r3
 80011d8:	dd0d      	ble.n	80011f6 <Flame_MaxReading+0x92>
 80011da:	693a      	ldr	r2, [r7, #16]
 80011dc:	68bb      	ldr	r3, [r7, #8]
 80011de:	429a      	cmp	r2, r3
 80011e0:	dd09      	ble.n	80011f6 <Flame_MaxReading+0x92>
 80011e2:	693a      	ldr	r2, [r7, #16]
 80011e4:	687b      	ldr	r3, [r7, #4]
 80011e6:	429a      	cmp	r2, r3
 80011e8:	dd05      	ble.n	80011f6 <Flame_MaxReading+0x92>
 80011ea:	693a      	ldr	r2, [r7, #16]
 80011ec:	683b      	ldr	r3, [r7, #0]
 80011ee:	429a      	cmp	r2, r3
 80011f0:	dd01      	ble.n	80011f6 <Flame_MaxReading+0x92>
	{
		return Front_Right_en;
 80011f2:	2302      	movs	r3, #2
 80011f4:	e01e      	b.n	8001234 <Flame_MaxReading+0xd0>
	}
	else if ((FrontLeft > Back) && (FrontLeft > Right) && (FrontLeft > Left))
 80011f6:	68fa      	ldr	r2, [r7, #12]
 80011f8:	68bb      	ldr	r3, [r7, #8]
 80011fa:	429a      	cmp	r2, r3
 80011fc:	dd09      	ble.n	8001212 <Flame_MaxReading+0xae>
 80011fe:	68fa      	ldr	r2, [r7, #12]
 8001200:	687b      	ldr	r3, [r7, #4]
 8001202:	429a      	cmp	r2, r3
 8001204:	dd05      	ble.n	8001212 <Flame_MaxReading+0xae>
 8001206:	68fa      	ldr	r2, [r7, #12]
 8001208:	683b      	ldr	r3, [r7, #0]
 800120a:	429a      	cmp	r2, r3
 800120c:	dd01      	ble.n	8001212 <Flame_MaxReading+0xae>
	{
		return Front_Left_en;
 800120e:	2301      	movs	r3, #1
 8001210:	e010      	b.n	8001234 <Flame_MaxReading+0xd0>
	}
	else if ((Back > Right) && (Back > Left))
 8001212:	68ba      	ldr	r2, [r7, #8]
 8001214:	687b      	ldr	r3, [r7, #4]
 8001216:	429a      	cmp	r2, r3
 8001218:	dd05      	ble.n	8001226 <Flame_MaxReading+0xc2>
 800121a:	68ba      	ldr	r2, [r7, #8]
 800121c:	683b      	ldr	r3, [r7, #0]
 800121e:	429a      	cmp	r2, r3
 8001220:	dd01      	ble.n	8001226 <Flame_MaxReading+0xc2>
	{
		return Back_en;
 8001222:	2305      	movs	r3, #5
 8001224:	e006      	b.n	8001234 <Flame_MaxReading+0xd0>
	}
	else if ((Right > Left))
 8001226:	687a      	ldr	r2, [r7, #4]
 8001228:	683b      	ldr	r3, [r7, #0]
 800122a:	429a      	cmp	r2, r3
 800122c:	dd01      	ble.n	8001232 <Flame_MaxReading+0xce>
	{
		return Right_en;
 800122e:	2303      	movs	r3, #3
 8001230:	e000      	b.n	8001234 <Flame_MaxReading+0xd0>
	}
	else
	{
		return Left_en;
 8001232:	2304      	movs	r3, #4
	}
}
 8001234:	4618      	mov	r0, r3
 8001236:	3718      	adds	r7, #24
 8001238:	46bd      	mov	sp, r7
 800123a:	bd80      	pop	{r7, pc}

0800123c <CarAdjustament>:

void CarAdjustament (Redirection MaxReading)
{
 800123c:	b580      	push	{r7, lr}
 800123e:	b082      	sub	sp, #8
 8001240:	af00      	add	r7, sp, #0
 8001242:	4603      	mov	r3, r0
 8001244:	71fb      	strb	r3, [r7, #7]
	switch (MaxReading)
 8001246:	79fb      	ldrb	r3, [r7, #7]
 8001248:	3b01      	subs	r3, #1
 800124a:	2b04      	cmp	r3, #4
 800124c:	d81f      	bhi.n	800128e <CarAdjustament+0x52>
 800124e:	a201      	add	r2, pc, #4	; (adr r2, 8001254 <CarAdjustament+0x18>)
 8001250:	f852 f023 	ldr.w	pc, [r2, r3, lsl #2]
 8001254:	08001271 	.word	0x08001271
 8001258:	08001285 	.word	0x08001285
 800125c:	08001285 	.word	0x08001285
 8001260:	08001271 	.word	0x08001271
 8001264:	08001285 	.word	0x08001285
	case Front_Left_en :
	case Left_en :
		//turn left
		while(Flame_MaxReading() != Front_mid_en)
		{
			Car_Rotation_Object(Car_TurnLeft , 50);
 8001268:	2132      	movs	r1, #50	; 0x32
 800126a:	2001      	movs	r0, #1
 800126c:	f7ff fd6c 	bl	8000d48 <Car_Rotation_Object>
		while(Flame_MaxReading() != Front_mid_en)
 8001270:	f7ff ff78 	bl	8001164 <Flame_MaxReading>
 8001274:	4603      	mov	r3, r0
 8001276:	2b00      	cmp	r3, #0
 8001278:	d1f6      	bne.n	8001268 <CarAdjustament+0x2c>
		}
	case Front_Right_en :
	case Right_en :
	case Back_en :
		//turn right
		while(Flame_MaxReading() != Front_mid_en)
 800127a:	e003      	b.n	8001284 <CarAdjustament+0x48>
		{
			Car_Rotation_Object(Car_TurnRight , 50);
 800127c:	2132      	movs	r1, #50	; 0x32
 800127e:	2000      	movs	r0, #0
 8001280:	f7ff fd62 	bl	8000d48 <Car_Rotation_Object>
		while(Flame_MaxReading() != Front_mid_en)
 8001284:	f7ff ff6e 	bl	8001164 <Flame_MaxReading>
 8001288:	4603      	mov	r3, r0
 800128a:	2b00      	cmp	r3, #0
 800128c:	d1f6      	bne.n	800127c <CarAdjustament+0x40>
		}
	}
}
 800128e:	bf00      	nop
 8001290:	3708      	adds	r7, #8
 8001292:	46bd      	mov	sp, r7
 8001294:	bd80      	pop	{r7, pc}
 8001296:	bf00      	nop

08001298 <CarAction>:
	n++;

}

void CarAction ()
{
 8001298:	b598      	push	{r3, r4, r7, lr}
 800129a:	af00      	add	r7, sp, #0
	while(!(Ultrasnic_Read() <= ULTRA_Threshold))
 800129c:	e003      	b.n	80012a6 <CarAction+0xe>
	{
		//move forward
		Car_Move(Car_Speed_70 , distance_step);
 800129e:	2132      	movs	r1, #50	; 0x32
 80012a0:	2046      	movs	r0, #70	; 0x46
 80012a2:	f7ff fdb5 	bl	8000e10 <Car_Move>
	while(!(Ultrasnic_Read() <= ULTRA_Threshold))
 80012a6:	f7ff fef3 	bl	8001090 <Ultrasnic_Read>
 80012aa:	4603      	mov	r3, r0
 80012ac:	2201      	movs	r2, #1
 80012ae:	4614      	mov	r4, r2
 80012b0:	490b      	ldr	r1, [pc, #44]	; (80012e0 <CarAction+0x48>)
 80012b2:	4618      	mov	r0, r3
 80012b4:	f7ff fce0 	bl	8000c78 <__aeabi_fcmple>
 80012b8:	4603      	mov	r3, r0
 80012ba:	2b00      	cmp	r3, #0
 80012bc:	d101      	bne.n	80012c2 <CarAction+0x2a>
 80012be:	2300      	movs	r3, #0
 80012c0:	461c      	mov	r4, r3
 80012c2:	b2e3      	uxtb	r3, r4
 80012c4:	f083 0301 	eor.w	r3, r3, #1
 80012c8:	b2db      	uxtb	r3, r3
 80012ca:	2b00      	cmp	r3, #0
 80012cc:	d1e7      	bne.n	800129e <CarAction+0x6>
	}
	//Routate the servo
	//Servo_RotationAngle(char angle , char dirction);
	//pumb on
	while(Flame_Frontmid_Read() >= Flame_Threshold)
 80012ce:	bf00      	nop
 80012d0:	f7ff fe94 	bl	8000ffc <Flame_Frontmid_Read>
 80012d4:	4603      	mov	r3, r0
 80012d6:	2b27      	cmp	r3, #39	; 0x27
 80012d8:	dcfa      	bgt.n	80012d0 <CarAction+0x38>
	{
		pumb(pumb_on);
	}
	pumb(pumb_off);
}
 80012da:	bf00      	nop
 80012dc:	bf00      	nop
 80012de:	bd98      	pop	{r3, r4, r7, pc}
 80012e0:	42200000 	.word	0x42200000

080012e4 <HAL_Driver_init>:



void HAL_Driver_init(void)
{
 80012e4:	b580      	push	{r7, lr}
 80012e6:	af00      	add	r7, sp, #0
	HAL_Flame_init();
 80012e8:	f7ff fde4 	bl	8000eb4 <HAL_Flame_init>
	HAL_DC_Motors_init();
 80012ec:	f7ff fd0e 	bl	8000d0c <HAL_DC_Motors_init>
	HAL_Ultrasonic_init();
 80012f0:	f7ff feb4 	bl	800105c <HAL_Ultrasonic_init>
	// Servo_Init();
	//Init_pumb();

}
 80012f4:	bf00      	nop
 80012f6:	bd80      	pop	{r7, pc}

080012f8 <main>:
	}
}



int main (){
 80012f8:	b580      	push	{r7, lr}
 80012fa:	b082      	sub	sp, #8
 80012fc:	af00      	add	r7, sp, #0

	Clock_INIT();
 80012fe:	f7ff fef9 	bl	80010f4 <Clock_INIT>
	HAL_Driver_init();
 8001302:	f7ff ffef 	bl	80012e4 <HAL_Driver_init>
	while(1)


	{
	//      object_detected = (Ultrasnic_Read() <= ULTRA_Threshold);
		      flame_detected = ((Flame_Frontmid_Read() >= Flame_Threshold) || (Flame_FrontRight_Read() >= Flame_Threshold) || (Flame_FrontLeft_Read() >= Flame_Threshold) || (Flame_Back_Read() >= Flame_Threshold) || (Flame_Right_Read() >= Flame_Threshold) || (Flame_Left_Read() >= Flame_Threshold) );
 8001306:	f7ff fe79 	bl	8000ffc <Flame_Frontmid_Read>
 800130a:	4603      	mov	r3, r0
 800130c:	2b27      	cmp	r3, #39	; 0x27
 800130e:	dc18      	bgt.n	8001342 <main+0x4a>
 8001310:	f7ff fe7c 	bl	800100c <Flame_FrontRight_Read>
 8001314:	4603      	mov	r3, r0
 8001316:	2b27      	cmp	r3, #39	; 0x27
 8001318:	dc13      	bgt.n	8001342 <main+0x4a>
 800131a:	f7ff fe7f 	bl	800101c <Flame_FrontLeft_Read>
 800131e:	4603      	mov	r3, r0
 8001320:	2b27      	cmp	r3, #39	; 0x27
 8001322:	dc0e      	bgt.n	8001342 <main+0x4a>
 8001324:	f7ff fe82 	bl	800102c <Flame_Back_Read>
 8001328:	4603      	mov	r3, r0
 800132a:	2b27      	cmp	r3, #39	; 0x27
 800132c:	dc09      	bgt.n	8001342 <main+0x4a>
 800132e:	f7ff fe85 	bl	800103c <Flame_Right_Read>
 8001332:	4603      	mov	r3, r0
 8001334:	2b27      	cmp	r3, #39	; 0x27
 8001336:	dc04      	bgt.n	8001342 <main+0x4a>
 8001338:	f7ff fe88 	bl	800104c <Flame_Left_Read>
 800133c:	4603      	mov	r3, r0
 800133e:	2b27      	cmp	r3, #39	; 0x27
 8001340:	dd01      	ble.n	8001346 <main+0x4e>
 8001342:	2301      	movs	r3, #1
 8001344:	e000      	b.n	8001348 <main+0x50>
 8001346:	2300      	movs	r3, #0
 8001348:	71fb      	strb	r3, [r7, #7]
//		          CarAdjustament (Flame_MaxReading());
//		          CarAction();
//		          n = 1;
//		      }
//
		      if (!flame_detected)
 800134a:	79fb      	ldrb	r3, [r7, #7]
 800134c:	2b00      	cmp	r3, #0
 800134e:	d1da      	bne.n	8001306 <main+0xe>
		      {
		          CarAdjustament (Flame_MaxReading());
 8001350:	f7ff ff08 	bl	8001164 <Flame_MaxReading>
 8001354:	4603      	mov	r3, r0
 8001356:	4618      	mov	r0, r3
 8001358:	f7ff ff70 	bl	800123c <CarAdjustament>
		          CarAction();
 800135c:	f7ff ff9c 	bl	8001298 <CarAction>
		          n = 1;
 8001360:	4b01      	ldr	r3, [pc, #4]	; (8001368 <main+0x70>)
 8001362:	2201      	movs	r2, #1
 8001364:	601a      	str	r2, [r3, #0]
		      flame_detected = ((Flame_Frontmid_Read() >= Flame_Threshold) || (Flame_FrontRight_Read() >= Flame_Threshold) || (Flame_FrontLeft_Read() >= Flame_Threshold) || (Flame_Back_Read() >= Flame_Threshold) || (Flame_Right_Read() >= Flame_Threshold) || (Flame_Left_Read() >= Flame_Threshold) );
 8001366:	e7ce      	b.n	8001306 <main+0xe>
 8001368:	20000000 	.word	0x20000000

0800136c <Reset_Handler>:

  .section .text.Reset_Handler
  .weak Reset_Handler
  .type Reset_Handler, %function
Reset_Handler:
  ldr   r0, =_estack
 800136c:	480d      	ldr	r0, [pc, #52]	; (80013a4 <LoopForever+0x2>)
  mov   sp, r0          /* set stack pointer */
 800136e:	4685      	mov	sp, r0
/* Call the clock system initialization function.*/
  bl  SystemInit
 8001370:	f3af 8000 	nop.w

/* Copy the data segment initializers from flash to SRAM */
  ldr r0, =_sdata
 8001374:	480c      	ldr	r0, [pc, #48]	; (80013a8 <LoopForever+0x6>)
  ldr r1, =_edata
 8001376:	490d      	ldr	r1, [pc, #52]	; (80013ac <LoopForever+0xa>)
  ldr r2, =_sidata
 8001378:	4a0d      	ldr	r2, [pc, #52]	; (80013b0 <LoopForever+0xe>)
  movs r3, #0
 800137a:	2300      	movs	r3, #0
  b LoopCopyDataInit
 800137c:	e002      	b.n	8001384 <LoopCopyDataInit>

0800137e <CopyDataInit>:

CopyDataInit:
  ldr r4, [r2, r3]
 800137e:	58d4      	ldr	r4, [r2, r3]
  str r4, [r0, r3]
 8001380:	50c4      	str	r4, [r0, r3]
  adds r3, r3, #4
 8001382:	3304      	adds	r3, #4

08001384 <LoopCopyDataInit>:

LoopCopyDataInit:
  adds r4, r0, r3
 8001384:	18c4      	adds	r4, r0, r3
  cmp r4, r1
 8001386:	428c      	cmp	r4, r1
  bcc CopyDataInit
 8001388:	d3f9      	bcc.n	800137e <CopyDataInit>

/* Zero fill the bss segment. */
  ldr r2, =_sbss
 800138a:	4a0a      	ldr	r2, [pc, #40]	; (80013b4 <LoopForever+0x12>)
  ldr r4, =_ebss
 800138c:	4c0a      	ldr	r4, [pc, #40]	; (80013b8 <LoopForever+0x16>)
  movs r3, #0
 800138e:	2300      	movs	r3, #0
  b LoopFillZerobss
 8001390:	e001      	b.n	8001396 <LoopFillZerobss>

08001392 <FillZerobss>:

FillZerobss:
  str  r3, [r2]
 8001392:	6013      	str	r3, [r2, #0]
  adds r2, r2, #4
 8001394:	3204      	adds	r2, #4

08001396 <LoopFillZerobss>:

LoopFillZerobss:
  cmp r2, r4
 8001396:	42a2      	cmp	r2, r4
  bcc FillZerobss
 8001398:	d3fb      	bcc.n	8001392 <FillZerobss>

/* Call static constructors */
  bl __libc_init_array
 800139a:	f000 fe7d 	bl	8002098 <__libc_init_array>
/* Call the application's entry point.*/
  bl main
 800139e:	f7ff ffab 	bl	80012f8 <main>

080013a2 <LoopForever>:

LoopForever:
    b LoopForever
 80013a2:	e7fe      	b.n	80013a2 <LoopForever>
  ldr   r0, =_estack
 80013a4:	20002800 	.word	0x20002800
  ldr r0, =_sdata
 80013a8:	20000000 	.word	0x20000000
  ldr r1, =_edata
 80013ac:	20000004 	.word	0x20000004
  ldr r2, =_sidata
 80013b0:	08002100 	.word	0x08002100
  ldr r2, =_sbss
 80013b4:	20000004 	.word	0x20000004
  ldr r4, =_ebss
 80013b8:	200000d8 	.word	0x200000d8

080013bc <ADC1_2_IRQHandler>:
 * @retval : None
*/
  .section .text.Default_Handler,"ax",%progbits
Default_Handler:
Infinite_Loop:
  b Infinite_Loop
 80013bc:	e7fe      	b.n	80013bc <ADC1_2_IRQHandler>
	...

080013c0 <delay_ms>:

#include "delay.h"


void delay_ms(int ms)
{
 80013c0:	b480      	push	{r7}
 80013c2:	b083      	sub	sp, #12
 80013c4:	af00      	add	r7, sp, #0
 80013c6:	6078      	str	r0, [r7, #4]
	// timer2 work at 8 MHZ set psc 7999 ( each increment take 1ms )
	TIM4->PSC=7999;
 80013c8:	4b11      	ldr	r3, [pc, #68]	; (8001410 <delay_ms+0x50>)
 80013ca:	f641 723f 	movw	r2, #7999	; 0x1f3f
 80013ce:	629a      	str	r2, [r3, #40]	; 0x28
	// timer count at ms-1
	TIM4->ARR=ms-1;
 80013d0:	687b      	ldr	r3, [r7, #4]
 80013d2:	1e5a      	subs	r2, r3, #1
 80013d4:	4b0e      	ldr	r3, [pc, #56]	; (8001410 <delay_ms+0x50>)
 80013d6:	62da      	str	r2, [r3, #44]	; 0x2c
	// enable counter
	TIM4->CR1 |=1<<0;
 80013d8:	4b0d      	ldr	r3, [pc, #52]	; (8001410 <delay_ms+0x50>)
 80013da:	681b      	ldr	r3, [r3, #0]
 80013dc:	4a0c      	ldr	r2, [pc, #48]	; (8001410 <delay_ms+0x50>)
 80013de:	f043 0301 	orr.w	r3, r3, #1
 80013e2:	6013      	str	r3, [r2, #0]
	// wait until counter reached compared register
	while(!(TIM4->SR & 1<<0));
 80013e4:	bf00      	nop
 80013e6:	4b0a      	ldr	r3, [pc, #40]	; (8001410 <delay_ms+0x50>)
 80013e8:	691b      	ldr	r3, [r3, #16]
 80013ea:	f003 0301 	and.w	r3, r3, #1
 80013ee:	2b00      	cmp	r3, #0
 80013f0:	d0f9      	beq.n	80013e6 <delay_ms+0x26>
	// clear flag
	TIM4->SR=0;
 80013f2:	4b07      	ldr	r3, [pc, #28]	; (8001410 <delay_ms+0x50>)
 80013f4:	2200      	movs	r2, #0
 80013f6:	611a      	str	r2, [r3, #16]
	// disable counter
	TIM4->CR1 =0;
 80013f8:	4b05      	ldr	r3, [pc, #20]	; (8001410 <delay_ms+0x50>)
 80013fa:	2200      	movs	r2, #0
 80013fc:	601a      	str	r2, [r3, #0]
	TIM4->CNT=0;
 80013fe:	4b04      	ldr	r3, [pc, #16]	; (8001410 <delay_ms+0x50>)
 8001400:	2200      	movs	r2, #0
 8001402:	625a      	str	r2, [r3, #36]	; 0x24
}
 8001404:	bf00      	nop
 8001406:	370c      	adds	r7, #12
 8001408:	46bd      	mov	sp, r7
 800140a:	bc80      	pop	{r7}
 800140c:	4770      	bx	lr
 800140e:	bf00      	nop
 8001410:	40000800 	.word	0x40000800

08001414 <MCAL_ADC_Init>:
* @retval 			-none
* Note				-none
*/

void MCAL_ADC_Init( ADC_config_t* ADC_Config )
{
 8001414:	b480      	push	{r7}
 8001416:	b083      	sub	sp, #12
 8001418:	af00      	add	r7, sp, #0
 800141a:	6078      	str	r0, [r7, #4]
	//set  Data alignment
	if(ADC_Config->Data_alignment==ADC_Data_alignment_Left)
 800141c:	687b      	ldr	r3, [r7, #4]
 800141e:	689b      	ldr	r3, [r3, #8]
 8001420:	f5b3 6f00 	cmp.w	r3, #2048	; 0x800
 8001424:	d105      	bne.n	8001432 <MCAL_ADC_Init+0x1e>
	{
		ADC1->CR2|=ADC_Data_alignment_Left;
 8001426:	4b30      	ldr	r3, [pc, #192]	; (80014e8 <MCAL_ADC_Init+0xd4>)
 8001428:	689b      	ldr	r3, [r3, #8]
 800142a:	4a2f      	ldr	r2, [pc, #188]	; (80014e8 <MCAL_ADC_Init+0xd4>)
 800142c:	f443 6300 	orr.w	r3, r3, #2048	; 0x800
 8001430:	6093      	str	r3, [r2, #8]
	else
	{
		//be default is right
	}
	//set mode
	if(ADC_Config->MODE==ADC_MODE_continuous)
 8001432:	687b      	ldr	r3, [r7, #4]
 8001434:	681b      	ldr	r3, [r3, #0]
 8001436:	2b02      	cmp	r3, #2
 8001438:	d105      	bne.n	8001446 <MCAL_ADC_Init+0x32>
	{
		ADC1->CR2|=ADC_MODE_continuous;
 800143a:	4b2b      	ldr	r3, [pc, #172]	; (80014e8 <MCAL_ADC_Init+0xd4>)
 800143c:	689b      	ldr	r3, [r3, #8]
 800143e:	4a2a      	ldr	r2, [pc, #168]	; (80014e8 <MCAL_ADC_Init+0xd4>)
 8001440:	f043 0302 	orr.w	r3, r3, #2
 8001444:	6093      	str	r3, [r2, #8]
	else
	{
		//be default single mode
	}
	//set sampling_time
	if(ADC_Config->sampling_time!=ADC_sampling_time_1_5)
 8001446:	687b      	ldr	r3, [r7, #4]
 8001448:	691b      	ldr	r3, [r3, #16]
 800144a:	2b00      	cmp	r3, #0
 800144c:	d023      	beq.n	8001496 <MCAL_ADC_Init+0x82>
	{
		if(ADC_Config->Channel<10)
 800144e:	687b      	ldr	r3, [r7, #4]
 8001450:	791b      	ldrb	r3, [r3, #4]
 8001452:	2b09      	cmp	r3, #9
 8001454:	d80f      	bhi.n	8001476 <MCAL_ADC_Init+0x62>
			ADC1->SMPR1 |=ADC_Config->sampling_time<<(ADC_Config->Channel*3);
 8001456:	4b24      	ldr	r3, [pc, #144]	; (80014e8 <MCAL_ADC_Init+0xd4>)
 8001458:	68da      	ldr	r2, [r3, #12]
 800145a:	687b      	ldr	r3, [r7, #4]
 800145c:	6919      	ldr	r1, [r3, #16]
 800145e:	687b      	ldr	r3, [r7, #4]
 8001460:	791b      	ldrb	r3, [r3, #4]
 8001462:	4618      	mov	r0, r3
 8001464:	4603      	mov	r3, r0
 8001466:	005b      	lsls	r3, r3, #1
 8001468:	4403      	add	r3, r0
 800146a:	fa01 f303 	lsl.w	r3, r1, r3
 800146e:	491e      	ldr	r1, [pc, #120]	; (80014e8 <MCAL_ADC_Init+0xd4>)
 8001470:	4313      	orrs	r3, r2
 8001472:	60cb      	str	r3, [r1, #12]
 8001474:	e00f      	b.n	8001496 <MCAL_ADC_Init+0x82>
		else
			ADC1->SMPR2 |=ADC_Config->sampling_time<<((ADC_Config->Channel-10)*3);
 8001476:	4b1c      	ldr	r3, [pc, #112]	; (80014e8 <MCAL_ADC_Init+0xd4>)
 8001478:	6919      	ldr	r1, [r3, #16]
 800147a:	687b      	ldr	r3, [r7, #4]
 800147c:	6918      	ldr	r0, [r3, #16]
 800147e:	687b      	ldr	r3, [r7, #4]
 8001480:	791b      	ldrb	r3, [r3, #4]
 8001482:	f1a3 020a 	sub.w	r2, r3, #10
 8001486:	4613      	mov	r3, r2
 8001488:	005b      	lsls	r3, r3, #1
 800148a:	4413      	add	r3, r2
 800148c:	fa00 f303 	lsl.w	r3, r0, r3
 8001490:	4a15      	ldr	r2, [pc, #84]	; (80014e8 <MCAL_ADC_Init+0xd4>)
 8001492:	430b      	orrs	r3, r1
 8001494:	6113      	str	r3, [r2, #16]
	}
	else
	{
		//be default 1.5 cycle
	}
	if(ADC_Config->IRQ_EN==ADC_IRQ_ENABLE_Enable)
 8001496:	687b      	ldr	r3, [r7, #4]
 8001498:	68db      	ldr	r3, [r3, #12]
 800149a:	2b20      	cmp	r3, #32
 800149c:	d10c      	bne.n	80014b8 <MCAL_ADC_Init+0xa4>
	{
		ADC1->CR1 |=ADC_IRQ_ENABLE_Enable;
 800149e:	4b12      	ldr	r3, [pc, #72]	; (80014e8 <MCAL_ADC_Init+0xd4>)
 80014a0:	685b      	ldr	r3, [r3, #4]
 80014a2:	4a11      	ldr	r2, [pc, #68]	; (80014e8 <MCAL_ADC_Init+0xd4>)
 80014a4:	f043 0320 	orr.w	r3, r3, #32
 80014a8:	6053      	str	r3, [r2, #4]
		NVIC_IRQ18_ADC_Enable();
 80014aa:	4b10      	ldr	r3, [pc, #64]	; (80014ec <MCAL_ADC_Init+0xd8>)
 80014ac:	681b      	ldr	r3, [r3, #0]
 80014ae:	4a0f      	ldr	r2, [pc, #60]	; (80014ec <MCAL_ADC_Init+0xd8>)
 80014b0:	f443 2380 	orr.w	r3, r3, #262144	; 0x40000
 80014b4:	6013      	str	r3, [r2, #0]
 80014b6:	e00b      	b.n	80014d0 <MCAL_ADC_Init+0xbc>
	}
	else
	{
		ADC1->CR1 &=ADC_IRQ_ENABLE_Disable;
 80014b8:	4b0b      	ldr	r3, [pc, #44]	; (80014e8 <MCAL_ADC_Init+0xd4>)
 80014ba:	685b      	ldr	r3, [r3, #4]
 80014bc:	4a0a      	ldr	r2, [pc, #40]	; (80014e8 <MCAL_ADC_Init+0xd4>)
 80014be:	f023 0320 	bic.w	r3, r3, #32
 80014c2:	6053      	str	r3, [r2, #4]
		NVIC_IRQ18_ADC_Disable();
 80014c4:	4b0a      	ldr	r3, [pc, #40]	; (80014f0 <MCAL_ADC_Init+0xdc>)
 80014c6:	681b      	ldr	r3, [r3, #0]
 80014c8:	4a09      	ldr	r2, [pc, #36]	; (80014f0 <MCAL_ADC_Init+0xdc>)
 80014ca:	f443 2380 	orr.w	r3, r3, #262144	; 0x40000
 80014ce:	6013      	str	r3, [r2, #0]
	}
	ADC1->CR2 |=1<<0;
 80014d0:	4b05      	ldr	r3, [pc, #20]	; (80014e8 <MCAL_ADC_Init+0xd4>)
 80014d2:	689b      	ldr	r3, [r3, #8]
 80014d4:	4a04      	ldr	r2, [pc, #16]	; (80014e8 <MCAL_ADC_Init+0xd4>)
 80014d6:	f043 0301 	orr.w	r3, r3, #1
 80014da:	6093      	str	r3, [r2, #8]
}
 80014dc:	bf00      	nop
 80014de:	370c      	adds	r7, #12
 80014e0:	46bd      	mov	sp, r7
 80014e2:	bc80      	pop	{r7}
 80014e4:	4770      	bx	lr
 80014e6:	bf00      	nop
 80014e8:	40012400 	.word	0x40012400
 80014ec:	e000e100 	.word	0xe000e100
 80014f0:	e000e180 	.word	0xe000e180

080014f4 <MCAL_ADC_Read>:
* @param [in]		-enum NUM_CH CH :Select ADC channel {CH0 TO CH17}
* @retval 			-ADC value
* Note				-Support CH0 TO CH17 (Single_Mode Data_alignment_Right )
*/
uint16_t MCAL_ADC_Read( enum NUM_CH CH )
{
 80014f4:	b480      	push	{r7}
 80014f6:	b085      	sub	sp, #20
 80014f8:	af00      	add	r7, sp, #0
 80014fa:	4603      	mov	r3, r0
 80014fc:	71fb      	strb	r3, [r7, #7]
	uint16_t data;
	//Channel selection
	ADC1->SQR3=CH;
 80014fe:	4a0c      	ldr	r2, [pc, #48]	; (8001530 <MCAL_ADC_Read+0x3c>)
 8001500:	79fb      	ldrb	r3, [r7, #7]
 8001502:	6353      	str	r3, [r2, #52]	; 0x34
	//Enable adc
	ADC1->CR2 |=1<<0;
 8001504:	4b0a      	ldr	r3, [pc, #40]	; (8001530 <MCAL_ADC_Read+0x3c>)
 8001506:	689b      	ldr	r3, [r3, #8]
 8001508:	4a09      	ldr	r2, [pc, #36]	; (8001530 <MCAL_ADC_Read+0x3c>)
 800150a:	f043 0301 	orr.w	r3, r3, #1
 800150e:	6093      	str	r3, [r2, #8]
	while(!(ADC1->SR & (1<<1)));
 8001510:	bf00      	nop
 8001512:	4b07      	ldr	r3, [pc, #28]	; (8001530 <MCAL_ADC_Read+0x3c>)
 8001514:	681b      	ldr	r3, [r3, #0]
 8001516:	f003 0302 	and.w	r3, r3, #2
 800151a:	2b00      	cmp	r3, #0
 800151c:	d0f9      	beq.n	8001512 <MCAL_ADC_Read+0x1e>
	data=ADC1->DR;
 800151e:	4b04      	ldr	r3, [pc, #16]	; (8001530 <MCAL_ADC_Read+0x3c>)
 8001520:	6cdb      	ldr	r3, [r3, #76]	; 0x4c
 8001522:	81fb      	strh	r3, [r7, #14]
	return data;
 8001524:	89fb      	ldrh	r3, [r7, #14]
}
 8001526:	4618      	mov	r0, r3
 8001528:	3714      	adds	r7, #20
 800152a:	46bd      	mov	sp, r7
 800152c:	bc80      	pop	{r7}
 800152e:	4770      	bx	lr
 8001530:	40012400 	.word	0x40012400

08001534 <EXTI0_IRQHandler>:
 *
 * ===============================================================
 */

void EXTI0_IRQHandler (void)
{
 8001534:	b580      	push	{r7, lr}
 8001536:	af00      	add	r7, sp, #0
	// Clear Pending register
	EXTI->PR |=(1<<0);
 8001538:	4b05      	ldr	r3, [pc, #20]	; (8001550 <EXTI0_IRQHandler+0x1c>)
 800153a:	695b      	ldr	r3, [r3, #20]
 800153c:	4a04      	ldr	r2, [pc, #16]	; (8001550 <EXTI0_IRQHandler+0x1c>)
 800153e:	f043 0301 	orr.w	r3, r3, #1
 8001542:	6153      	str	r3, [r2, #20]
	//Call function
	GP_IRQ_CALL[0]();
 8001544:	4b03      	ldr	r3, [pc, #12]	; (8001554 <EXTI0_IRQHandler+0x20>)
 8001546:	681b      	ldr	r3, [r3, #0]
 8001548:	4798      	blx	r3
}
 800154a:	bf00      	nop
 800154c:	bd80      	pop	{r7, pc}
 800154e:	bf00      	nop
 8001550:	40010400 	.word	0x40010400
 8001554:	20000050 	.word	0x20000050

08001558 <EXTI1_IRQHandler>:

void EXTI1_IRQHandler (void)
{
 8001558:	b580      	push	{r7, lr}
 800155a:	af00      	add	r7, sp, #0
	// Clear Pending register
	EXTI->PR |=(1<<1);
 800155c:	4b05      	ldr	r3, [pc, #20]	; (8001574 <EXTI1_IRQHandler+0x1c>)
 800155e:	695b      	ldr	r3, [r3, #20]
 8001560:	4a04      	ldr	r2, [pc, #16]	; (8001574 <EXTI1_IRQHandler+0x1c>)
 8001562:	f043 0302 	orr.w	r3, r3, #2
 8001566:	6153      	str	r3, [r2, #20]
	//Call function
	GP_IRQ_CALL[1]();
 8001568:	4b03      	ldr	r3, [pc, #12]	; (8001578 <EXTI1_IRQHandler+0x20>)
 800156a:	685b      	ldr	r3, [r3, #4]
 800156c:	4798      	blx	r3
}
 800156e:	bf00      	nop
 8001570:	bd80      	pop	{r7, pc}
 8001572:	bf00      	nop
 8001574:	40010400 	.word	0x40010400
 8001578:	20000050 	.word	0x20000050

0800157c <EXTI2_IRQHandler>:

void EXTI2_IRQHandler (void)
{
 800157c:	b580      	push	{r7, lr}
 800157e:	af00      	add	r7, sp, #0
	// Clear Pending register
	EXTI->PR |=(1<<2);
 8001580:	4b05      	ldr	r3, [pc, #20]	; (8001598 <EXTI2_IRQHandler+0x1c>)
 8001582:	695b      	ldr	r3, [r3, #20]
 8001584:	4a04      	ldr	r2, [pc, #16]	; (8001598 <EXTI2_IRQHandler+0x1c>)
 8001586:	f043 0304 	orr.w	r3, r3, #4
 800158a:	6153      	str	r3, [r2, #20]
	//Call function
	GP_IRQ_CALL[2]();
 800158c:	4b03      	ldr	r3, [pc, #12]	; (800159c <EXTI2_IRQHandler+0x20>)
 800158e:	689b      	ldr	r3, [r3, #8]
 8001590:	4798      	blx	r3
}
 8001592:	bf00      	nop
 8001594:	bd80      	pop	{r7, pc}
 8001596:	bf00      	nop
 8001598:	40010400 	.word	0x40010400
 800159c:	20000050 	.word	0x20000050

080015a0 <EXTI3_IRQHandler>:

void EXTI3_IRQHandler (void)
{
 80015a0:	b580      	push	{r7, lr}
 80015a2:	af00      	add	r7, sp, #0
	// Clear Pending register
	EXTI->PR |=(1<<3);
 80015a4:	4b05      	ldr	r3, [pc, #20]	; (80015bc <EXTI3_IRQHandler+0x1c>)
 80015a6:	695b      	ldr	r3, [r3, #20]
 80015a8:	4a04      	ldr	r2, [pc, #16]	; (80015bc <EXTI3_IRQHandler+0x1c>)
 80015aa:	f043 0308 	orr.w	r3, r3, #8
 80015ae:	6153      	str	r3, [r2, #20]
	//Call function
	GP_IRQ_CALL[3]();
 80015b0:	4b03      	ldr	r3, [pc, #12]	; (80015c0 <EXTI3_IRQHandler+0x20>)
 80015b2:	68db      	ldr	r3, [r3, #12]
 80015b4:	4798      	blx	r3
}
 80015b6:	bf00      	nop
 80015b8:	bd80      	pop	{r7, pc}
 80015ba:	bf00      	nop
 80015bc:	40010400 	.word	0x40010400
 80015c0:	20000050 	.word	0x20000050

080015c4 <EXTI4_IRQHandler>:

void EXTI4_IRQHandler (void)
{
 80015c4:	b580      	push	{r7, lr}
 80015c6:	af00      	add	r7, sp, #0
	// Clear Pending register
	EXTI->PR |=(1<<4);
 80015c8:	4b05      	ldr	r3, [pc, #20]	; (80015e0 <EXTI4_IRQHandler+0x1c>)
 80015ca:	695b      	ldr	r3, [r3, #20]
 80015cc:	4a04      	ldr	r2, [pc, #16]	; (80015e0 <EXTI4_IRQHandler+0x1c>)
 80015ce:	f043 0310 	orr.w	r3, r3, #16
 80015d2:	6153      	str	r3, [r2, #20]
	//Call function
	GP_IRQ_CALL[4]();
 80015d4:	4b03      	ldr	r3, [pc, #12]	; (80015e4 <EXTI4_IRQHandler+0x20>)
 80015d6:	691b      	ldr	r3, [r3, #16]
 80015d8:	4798      	blx	r3
}
 80015da:	bf00      	nop
 80015dc:	bd80      	pop	{r7, pc}
 80015de:	bf00      	nop
 80015e0:	40010400 	.word	0x40010400
 80015e4:	20000050 	.word	0x20000050

080015e8 <EXTI9_5_IRQHandler>:


void EXTI9_5_IRQHandler (void)
{
 80015e8:	b580      	push	{r7, lr}
 80015ea:	af00      	add	r7, sp, #0
	if( EXTI->PR & 1<<5 )	{ EXTI->PR |=( 1 << 5 ) ;		GP_IRQ_CALL[5]() ; }
 80015ec:	4b26      	ldr	r3, [pc, #152]	; (8001688 <EXTI9_5_IRQHandler+0xa0>)
 80015ee:	695b      	ldr	r3, [r3, #20]
 80015f0:	f003 0320 	and.w	r3, r3, #32
 80015f4:	2b00      	cmp	r3, #0
 80015f6:	d008      	beq.n	800160a <EXTI9_5_IRQHandler+0x22>
 80015f8:	4b23      	ldr	r3, [pc, #140]	; (8001688 <EXTI9_5_IRQHandler+0xa0>)
 80015fa:	695b      	ldr	r3, [r3, #20]
 80015fc:	4a22      	ldr	r2, [pc, #136]	; (8001688 <EXTI9_5_IRQHandler+0xa0>)
 80015fe:	f043 0320 	orr.w	r3, r3, #32
 8001602:	6153      	str	r3, [r2, #20]
 8001604:	4b21      	ldr	r3, [pc, #132]	; (800168c <EXTI9_5_IRQHandler+0xa4>)
 8001606:	695b      	ldr	r3, [r3, #20]
 8001608:	4798      	blx	r3
	if( EXTI->PR & 1<<6 )	{ EXTI->PR |=( 1 << 6 ) ;		GP_IRQ_CALL[6]() ; }
 800160a:	4b1f      	ldr	r3, [pc, #124]	; (8001688 <EXTI9_5_IRQHandler+0xa0>)
 800160c:	695b      	ldr	r3, [r3, #20]
 800160e:	f003 0340 	and.w	r3, r3, #64	; 0x40
 8001612:	2b00      	cmp	r3, #0
 8001614:	d008      	beq.n	8001628 <EXTI9_5_IRQHandler+0x40>
 8001616:	4b1c      	ldr	r3, [pc, #112]	; (8001688 <EXTI9_5_IRQHandler+0xa0>)
 8001618:	695b      	ldr	r3, [r3, #20]
 800161a:	4a1b      	ldr	r2, [pc, #108]	; (8001688 <EXTI9_5_IRQHandler+0xa0>)
 800161c:	f043 0340 	orr.w	r3, r3, #64	; 0x40
 8001620:	6153      	str	r3, [r2, #20]
 8001622:	4b1a      	ldr	r3, [pc, #104]	; (800168c <EXTI9_5_IRQHandler+0xa4>)
 8001624:	699b      	ldr	r3, [r3, #24]
 8001626:	4798      	blx	r3
	if( EXTI->PR & 1<<7 )	{ EXTI->PR |=( 1 << 7 ) ;		GP_IRQ_CALL[7]() ; }
 8001628:	4b17      	ldr	r3, [pc, #92]	; (8001688 <EXTI9_5_IRQHandler+0xa0>)
 800162a:	695b      	ldr	r3, [r3, #20]
 800162c:	f003 0380 	and.w	r3, r3, #128	; 0x80
 8001630:	2b00      	cmp	r3, #0
 8001632:	d008      	beq.n	8001646 <EXTI9_5_IRQHandler+0x5e>
 8001634:	4b14      	ldr	r3, [pc, #80]	; (8001688 <EXTI9_5_IRQHandler+0xa0>)
 8001636:	695b      	ldr	r3, [r3, #20]
 8001638:	4a13      	ldr	r2, [pc, #76]	; (8001688 <EXTI9_5_IRQHandler+0xa0>)
 800163a:	f043 0380 	orr.w	r3, r3, #128	; 0x80
 800163e:	6153      	str	r3, [r2, #20]
 8001640:	4b12      	ldr	r3, [pc, #72]	; (800168c <EXTI9_5_IRQHandler+0xa4>)
 8001642:	69db      	ldr	r3, [r3, #28]
 8001644:	4798      	blx	r3
	if( EXTI->PR & 1<<8 )	{ EXTI->PR |=( 1 << 8 ) ;		GP_IRQ_CALL[8]() ; }
 8001646:	4b10      	ldr	r3, [pc, #64]	; (8001688 <EXTI9_5_IRQHandler+0xa0>)
 8001648:	695b      	ldr	r3, [r3, #20]
 800164a:	f403 7380 	and.w	r3, r3, #256	; 0x100
 800164e:	2b00      	cmp	r3, #0
 8001650:	d008      	beq.n	8001664 <EXTI9_5_IRQHandler+0x7c>
 8001652:	4b0d      	ldr	r3, [pc, #52]	; (8001688 <EXTI9_5_IRQHandler+0xa0>)
 8001654:	695b      	ldr	r3, [r3, #20]
 8001656:	4a0c      	ldr	r2, [pc, #48]	; (8001688 <EXTI9_5_IRQHandler+0xa0>)
 8001658:	f443 7380 	orr.w	r3, r3, #256	; 0x100
 800165c:	6153      	str	r3, [r2, #20]
 800165e:	4b0b      	ldr	r3, [pc, #44]	; (800168c <EXTI9_5_IRQHandler+0xa4>)
 8001660:	6a1b      	ldr	r3, [r3, #32]
 8001662:	4798      	blx	r3
	if( EXTI->PR & 1<<9 )	{ EXTI->PR |=( 1 << 9 ) ;		GP_IRQ_CALL[9]() ; }
 8001664:	4b08      	ldr	r3, [pc, #32]	; (8001688 <EXTI9_5_IRQHandler+0xa0>)
 8001666:	695b      	ldr	r3, [r3, #20]
 8001668:	f403 7300 	and.w	r3, r3, #512	; 0x200
 800166c:	2b00      	cmp	r3, #0
 800166e:	d008      	beq.n	8001682 <EXTI9_5_IRQHandler+0x9a>
 8001670:	4b05      	ldr	r3, [pc, #20]	; (8001688 <EXTI9_5_IRQHandler+0xa0>)
 8001672:	695b      	ldr	r3, [r3, #20]
 8001674:	4a04      	ldr	r2, [pc, #16]	; (8001688 <EXTI9_5_IRQHandler+0xa0>)
 8001676:	f443 7300 	orr.w	r3, r3, #512	; 0x200
 800167a:	6153      	str	r3, [r2, #20]
 800167c:	4b03      	ldr	r3, [pc, #12]	; (800168c <EXTI9_5_IRQHandler+0xa4>)
 800167e:	6a5b      	ldr	r3, [r3, #36]	; 0x24
 8001680:	4798      	blx	r3
}
 8001682:	bf00      	nop
 8001684:	bd80      	pop	{r7, pc}
 8001686:	bf00      	nop
 8001688:	40010400 	.word	0x40010400
 800168c:	20000050 	.word	0x20000050

08001690 <EXTI15_10_IRQHandler>:


void EXTI15_10_IRQHandler (void)
{
 8001690:	b580      	push	{r7, lr}
 8001692:	af00      	add	r7, sp, #0
	if( EXTI->PR & 1<<10 )	{ EXTI->PR |=( 1 << 10 ) ;		GP_IRQ_CALL[10]() ; }
 8001694:	4b2d      	ldr	r3, [pc, #180]	; (800174c <EXTI15_10_IRQHandler+0xbc>)
 8001696:	695b      	ldr	r3, [r3, #20]
 8001698:	f403 6380 	and.w	r3, r3, #1024	; 0x400
 800169c:	2b00      	cmp	r3, #0
 800169e:	d008      	beq.n	80016b2 <EXTI15_10_IRQHandler+0x22>
 80016a0:	4b2a      	ldr	r3, [pc, #168]	; (800174c <EXTI15_10_IRQHandler+0xbc>)
 80016a2:	695b      	ldr	r3, [r3, #20]
 80016a4:	4a29      	ldr	r2, [pc, #164]	; (800174c <EXTI15_10_IRQHandler+0xbc>)
 80016a6:	f443 6380 	orr.w	r3, r3, #1024	; 0x400
 80016aa:	6153      	str	r3, [r2, #20]
 80016ac:	4b28      	ldr	r3, [pc, #160]	; (8001750 <EXTI15_10_IRQHandler+0xc0>)
 80016ae:	6a9b      	ldr	r3, [r3, #40]	; 0x28
 80016b0:	4798      	blx	r3
	if( EXTI->PR & 1<<11 )	{ EXTI->PR |=( 1 << 11 ) ;		GP_IRQ_CALL[11]() ; }
 80016b2:	4b26      	ldr	r3, [pc, #152]	; (800174c <EXTI15_10_IRQHandler+0xbc>)
 80016b4:	695b      	ldr	r3, [r3, #20]
 80016b6:	f403 6300 	and.w	r3, r3, #2048	; 0x800
 80016ba:	2b00      	cmp	r3, #0
 80016bc:	d008      	beq.n	80016d0 <EXTI15_10_IRQHandler+0x40>
 80016be:	4b23      	ldr	r3, [pc, #140]	; (800174c <EXTI15_10_IRQHandler+0xbc>)
 80016c0:	695b      	ldr	r3, [r3, #20]
 80016c2:	4a22      	ldr	r2, [pc, #136]	; (800174c <EXTI15_10_IRQHandler+0xbc>)
 80016c4:	f443 6300 	orr.w	r3, r3, #2048	; 0x800
 80016c8:	6153      	str	r3, [r2, #20]
 80016ca:	4b21      	ldr	r3, [pc, #132]	; (8001750 <EXTI15_10_IRQHandler+0xc0>)
 80016cc:	6adb      	ldr	r3, [r3, #44]	; 0x2c
 80016ce:	4798      	blx	r3
	if( EXTI->PR & 1<<12 )	{ EXTI->PR |=( 1 << 12 ) ;		GP_IRQ_CALL[12]() ; }
 80016d0:	4b1e      	ldr	r3, [pc, #120]	; (800174c <EXTI15_10_IRQHandler+0xbc>)
 80016d2:	695b      	ldr	r3, [r3, #20]
 80016d4:	f403 5380 	and.w	r3, r3, #4096	; 0x1000
 80016d8:	2b00      	cmp	r3, #0
 80016da:	d008      	beq.n	80016ee <EXTI15_10_IRQHandler+0x5e>
 80016dc:	4b1b      	ldr	r3, [pc, #108]	; (800174c <EXTI15_10_IRQHandler+0xbc>)
 80016de:	695b      	ldr	r3, [r3, #20]
 80016e0:	4a1a      	ldr	r2, [pc, #104]	; (800174c <EXTI15_10_IRQHandler+0xbc>)
 80016e2:	f443 5380 	orr.w	r3, r3, #4096	; 0x1000
 80016e6:	6153      	str	r3, [r2, #20]
 80016e8:	4b19      	ldr	r3, [pc, #100]	; (8001750 <EXTI15_10_IRQHandler+0xc0>)
 80016ea:	6b1b      	ldr	r3, [r3, #48]	; 0x30
 80016ec:	4798      	blx	r3
	if( EXTI->PR & 1<<13 )	{ EXTI->PR |=( 1 << 13 ) ;		GP_IRQ_CALL[13]() ; }
 80016ee:	4b17      	ldr	r3, [pc, #92]	; (800174c <EXTI15_10_IRQHandler+0xbc>)
 80016f0:	695b      	ldr	r3, [r3, #20]
 80016f2:	f403 5300 	and.w	r3, r3, #8192	; 0x2000
 80016f6:	2b00      	cmp	r3, #0
 80016f8:	d008      	beq.n	800170c <EXTI15_10_IRQHandler+0x7c>
 80016fa:	4b14      	ldr	r3, [pc, #80]	; (800174c <EXTI15_10_IRQHandler+0xbc>)
 80016fc:	695b      	ldr	r3, [r3, #20]
 80016fe:	4a13      	ldr	r2, [pc, #76]	; (800174c <EXTI15_10_IRQHandler+0xbc>)
 8001700:	f443 5300 	orr.w	r3, r3, #8192	; 0x2000
 8001704:	6153      	str	r3, [r2, #20]
 8001706:	4b12      	ldr	r3, [pc, #72]	; (8001750 <EXTI15_10_IRQHandler+0xc0>)
 8001708:	6b5b      	ldr	r3, [r3, #52]	; 0x34
 800170a:	4798      	blx	r3
	if( EXTI->PR & 1<<14 )	{ EXTI->PR |=( 1 << 14 ) ;		GP_IRQ_CALL[14]() ; }
 800170c:	4b0f      	ldr	r3, [pc, #60]	; (800174c <EXTI15_10_IRQHandler+0xbc>)
 800170e:	695b      	ldr	r3, [r3, #20]
 8001710:	f403 4380 	and.w	r3, r3, #16384	; 0x4000
 8001714:	2b00      	cmp	r3, #0
 8001716:	d008      	beq.n	800172a <EXTI15_10_IRQHandler+0x9a>
 8001718:	4b0c      	ldr	r3, [pc, #48]	; (800174c <EXTI15_10_IRQHandler+0xbc>)
 800171a:	695b      	ldr	r3, [r3, #20]
 800171c:	4a0b      	ldr	r2, [pc, #44]	; (800174c <EXTI15_10_IRQHandler+0xbc>)
 800171e:	f443 4380 	orr.w	r3, r3, #16384	; 0x4000
 8001722:	6153      	str	r3, [r2, #20]
 8001724:	4b0a      	ldr	r3, [pc, #40]	; (8001750 <EXTI15_10_IRQHandler+0xc0>)
 8001726:	6b9b      	ldr	r3, [r3, #56]	; 0x38
 8001728:	4798      	blx	r3
	if( EXTI->PR & 1<<15 )	{ EXTI->PR |=( 1 << 15 ) ;		GP_IRQ_CALL[15]() ; }
 800172a:	4b08      	ldr	r3, [pc, #32]	; (800174c <EXTI15_10_IRQHandler+0xbc>)
 800172c:	695b      	ldr	r3, [r3, #20]
 800172e:	f403 4300 	and.w	r3, r3, #32768	; 0x8000
 8001732:	2b00      	cmp	r3, #0
 8001734:	d008      	beq.n	8001748 <EXTI15_10_IRQHandler+0xb8>
 8001736:	4b05      	ldr	r3, [pc, #20]	; (800174c <EXTI15_10_IRQHandler+0xbc>)
 8001738:	695b      	ldr	r3, [r3, #20]
 800173a:	4a04      	ldr	r2, [pc, #16]	; (800174c <EXTI15_10_IRQHandler+0xbc>)
 800173c:	f443 4300 	orr.w	r3, r3, #32768	; 0x8000
 8001740:	6153      	str	r3, [r2, #20]
 8001742:	4b03      	ldr	r3, [pc, #12]	; (8001750 <EXTI15_10_IRQHandler+0xc0>)
 8001744:	6bdb      	ldr	r3, [r3, #60]	; 0x3c
 8001746:	4798      	blx	r3
}
 8001748:	bf00      	nop
 800174a:	bd80      	pop	{r7, pc}
 800174c:	40010400 	.word	0x40010400
 8001750:	20000050 	.word	0x20000050

08001754 <get_position>:

#include"stm32_f103c6_GPIO.h"


uint8_t get_position(uint16_t pinNumber)
{
 8001754:	b480      	push	{r7}
 8001756:	b083      	sub	sp, #12
 8001758:	af00      	add	r7, sp, #0
 800175a:	4603      	mov	r3, r0
 800175c:	80fb      	strh	r3, [r7, #6]
	switch(pinNumber)
 800175e:	88fb      	ldrh	r3, [r7, #6]
 8001760:	f5b3 4f00 	cmp.w	r3, #32768	; 0x8000
 8001764:	f000 80a5 	beq.w	80018b2 <get_position+0x15e>
 8001768:	f5b3 4f00 	cmp.w	r3, #32768	; 0x8000
 800176c:	f300 80a3 	bgt.w	80018b6 <get_position+0x162>
 8001770:	f5b3 4f80 	cmp.w	r3, #16384	; 0x4000
 8001774:	f000 809b 	beq.w	80018ae <get_position+0x15a>
 8001778:	f5b3 4f80 	cmp.w	r3, #16384	; 0x4000
 800177c:	f300 809b 	bgt.w	80018b6 <get_position+0x162>
 8001780:	f5b3 5f00 	cmp.w	r3, #8192	; 0x2000
 8001784:	f000 8091 	beq.w	80018aa <get_position+0x156>
 8001788:	f5b3 5f00 	cmp.w	r3, #8192	; 0x2000
 800178c:	f300 8093 	bgt.w	80018b6 <get_position+0x162>
 8001790:	f5b3 5f80 	cmp.w	r3, #4096	; 0x1000
 8001794:	f000 8087 	beq.w	80018a6 <get_position+0x152>
 8001798:	f5b3 5f80 	cmp.w	r3, #4096	; 0x1000
 800179c:	f300 808b 	bgt.w	80018b6 <get_position+0x162>
 80017a0:	f5b3 6f00 	cmp.w	r3, #2048	; 0x800
 80017a4:	d07d      	beq.n	80018a2 <get_position+0x14e>
 80017a6:	f5b3 6f00 	cmp.w	r3, #2048	; 0x800
 80017aa:	f300 8084 	bgt.w	80018b6 <get_position+0x162>
 80017ae:	f5b3 6f80 	cmp.w	r3, #1024	; 0x400
 80017b2:	d074      	beq.n	800189e <get_position+0x14a>
 80017b4:	f5b3 6f80 	cmp.w	r3, #1024	; 0x400
 80017b8:	dc7d      	bgt.n	80018b6 <get_position+0x162>
 80017ba:	f5b3 7f00 	cmp.w	r3, #512	; 0x200
 80017be:	d06c      	beq.n	800189a <get_position+0x146>
 80017c0:	f5b3 7f00 	cmp.w	r3, #512	; 0x200
 80017c4:	dc77      	bgt.n	80018b6 <get_position+0x162>
 80017c6:	f5b3 7f80 	cmp.w	r3, #256	; 0x100
 80017ca:	d064      	beq.n	8001896 <get_position+0x142>
 80017cc:	f5b3 7f80 	cmp.w	r3, #256	; 0x100
 80017d0:	dc71      	bgt.n	80018b6 <get_position+0x162>
 80017d2:	2b80      	cmp	r3, #128	; 0x80
 80017d4:	d05d      	beq.n	8001892 <get_position+0x13e>
 80017d6:	2b80      	cmp	r3, #128	; 0x80
 80017d8:	dc6d      	bgt.n	80018b6 <get_position+0x162>
 80017da:	2b20      	cmp	r3, #32
 80017dc:	dc48      	bgt.n	8001870 <get_position+0x11c>
 80017de:	2b00      	cmp	r3, #0
 80017e0:	dd69      	ble.n	80018b6 <get_position+0x162>
 80017e2:	3b01      	subs	r3, #1
 80017e4:	2b1f      	cmp	r3, #31
 80017e6:	d866      	bhi.n	80018b6 <get_position+0x162>
 80017e8:	a201      	add	r2, pc, #4	; (adr r2, 80017f0 <get_position+0x9c>)
 80017ea:	f852 f023 	ldr.w	pc, [r2, r3, lsl #2]
 80017ee:	bf00      	nop
 80017f0:	08001877 	.word	0x08001877
 80017f4:	0800187b 	.word	0x0800187b
 80017f8:	080018b7 	.word	0x080018b7
 80017fc:	0800187f 	.word	0x0800187f
 8001800:	080018b7 	.word	0x080018b7
 8001804:	080018b7 	.word	0x080018b7
 8001808:	080018b7 	.word	0x080018b7
 800180c:	08001883 	.word	0x08001883
 8001810:	080018b7 	.word	0x080018b7
 8001814:	080018b7 	.word	0x080018b7
 8001818:	080018b7 	.word	0x080018b7
 800181c:	080018b7 	.word	0x080018b7
 8001820:	080018b7 	.word	0x080018b7
 8001824:	080018b7 	.word	0x080018b7
 8001828:	080018b7 	.word	0x080018b7
 800182c:	08001887 	.word	0x08001887
 8001830:	080018b7 	.word	0x080018b7
 8001834:	080018b7 	.word	0x080018b7
 8001838:	080018b7 	.word	0x080018b7
 800183c:	080018b7 	.word	0x080018b7
 8001840:	080018b7 	.word	0x080018b7
 8001844:	080018b7 	.word	0x080018b7
 8001848:	080018b7 	.word	0x080018b7
 800184c:	080018b7 	.word	0x080018b7
 8001850:	080018b7 	.word	0x080018b7
 8001854:	080018b7 	.word	0x080018b7
 8001858:	080018b7 	.word	0x080018b7
 800185c:	080018b7 	.word	0x080018b7
 8001860:	080018b7 	.word	0x080018b7
 8001864:	080018b7 	.word	0x080018b7
 8001868:	080018b7 	.word	0x080018b7
 800186c:	0800188b 	.word	0x0800188b
 8001870:	2b40      	cmp	r3, #64	; 0x40
 8001872:	d00c      	beq.n	800188e <get_position+0x13a>
 8001874:	e01f      	b.n	80018b6 <get_position+0x162>
	{
	case GPIO_PIN_0 :
		return 0;
 8001876:	2300      	movs	r3, #0
 8001878:	e01e      	b.n	80018b8 <get_position+0x164>
		break;
	case GPIO_PIN_1 :
		return 4;
 800187a:	2304      	movs	r3, #4
 800187c:	e01c      	b.n	80018b8 <get_position+0x164>
		break;
	case GPIO_PIN_2 :
		return 8;
 800187e:	2308      	movs	r3, #8
 8001880:	e01a      	b.n	80018b8 <get_position+0x164>
		break;
	case GPIO_PIN_3 :
		return 12;
 8001882:	230c      	movs	r3, #12
 8001884:	e018      	b.n	80018b8 <get_position+0x164>
		break;
	case GPIO_PIN_4 :
		return 16;
 8001886:	2310      	movs	r3, #16
 8001888:	e016      	b.n	80018b8 <get_position+0x164>
		break;
	case GPIO_PIN_5 :
		return 20;
 800188a:	2314      	movs	r3, #20
 800188c:	e014      	b.n	80018b8 <get_position+0x164>
		break;
	case GPIO_PIN_6 :
		return 24;
 800188e:	2318      	movs	r3, #24
 8001890:	e012      	b.n	80018b8 <get_position+0x164>
		break;
	case GPIO_PIN_7 :
		return 28;
 8001892:	231c      	movs	r3, #28
 8001894:	e010      	b.n	80018b8 <get_position+0x164>
		break;
	case GPIO_PIN_8 :
		return 0;
 8001896:	2300      	movs	r3, #0
 8001898:	e00e      	b.n	80018b8 <get_position+0x164>
		break;
	case GPIO_PIN_9 :
		return 4;
 800189a:	2304      	movs	r3, #4
 800189c:	e00c      	b.n	80018b8 <get_position+0x164>
		break;
	case GPIO_PIN_10 :
		return 8;
 800189e:	2308      	movs	r3, #8
 80018a0:	e00a      	b.n	80018b8 <get_position+0x164>
		break;
	case GPIO_PIN_11 :
		return 12;
 80018a2:	230c      	movs	r3, #12
 80018a4:	e008      	b.n	80018b8 <get_position+0x164>
		break;
	case GPIO_PIN_12 :
		return 16;
 80018a6:	2310      	movs	r3, #16
 80018a8:	e006      	b.n	80018b8 <get_position+0x164>
		break;
	case GPIO_PIN_13 :
		return 20;
 80018aa:	2314      	movs	r3, #20
 80018ac:	e004      	b.n	80018b8 <get_position+0x164>
		break;
	case GPIO_PIN_14 :
		return 24;
 80018ae:	2318      	movs	r3, #24
 80018b0:	e002      	b.n	80018b8 <get_position+0x164>
		break;
	case GPIO_PIN_15 :
		return 28;
 80018b2:	231c      	movs	r3, #28
 80018b4:	e000      	b.n	80018b8 <get_position+0x164>
		break;
	default:
		return 0;
 80018b6:	2300      	movs	r3, #0
	}
}
 80018b8:	4618      	mov	r0, r3
 80018ba:	370c      	adds	r7, #12
 80018bc:	46bd      	mov	sp, r7
 80018be:	bc80      	pop	{r7}
 80018c0:	4770      	bx	lr
 80018c2:	bf00      	nop

080018c4 <MCAL_GPIO_Init>:
* @param [in] 		-pinconfig: configuration information for the specified pin
* @retval 			-none
* Note				-stm32f103c6 has GPIO (A--->> E)but the LQFP48 package has GPIO (A---->> D)
*/
void MCAL_GPIO_Init(GPIO_TypeDef *GPIOx , GPIO_Pinconfig_t *pinconfig )
{
 80018c4:	b590      	push	{r4, r7, lr}
 80018c6:	b085      	sub	sp, #20
 80018c8:	af00      	add	r7, sp, #0
 80018ca:	6078      	str	r0, [r7, #4]
 80018cc:	6039      	str	r1, [r7, #0]
	// GPIO->CRL configure pins 0-->>7
	// GPIO->CRH configure pins 8-->>15
	volatile uint32_t *configregister =NULL;
 80018ce:	2300      	movs	r3, #0
 80018d0:	60bb      	str	r3, [r7, #8]
	uint8_t pin_config=0;
 80018d2:	2300      	movs	r3, #0
 80018d4:	73fb      	strb	r3, [r7, #15]
	configregister = (pinconfig->pinNumber <GPIO_PIN_8) ? &GPIOx->CRL : &GPIOx->CRH ;
 80018d6:	683b      	ldr	r3, [r7, #0]
 80018d8:	881b      	ldrh	r3, [r3, #0]
 80018da:	2bff      	cmp	r3, #255	; 0xff
 80018dc:	d801      	bhi.n	80018e2 <MCAL_GPIO_Init+0x1e>
 80018de:	687b      	ldr	r3, [r7, #4]
 80018e0:	e001      	b.n	80018e6 <MCAL_GPIO_Init+0x22>
 80018e2:	687b      	ldr	r3, [r7, #4]
 80018e4:	3304      	adds	r3, #4
 80018e6:	60bb      	str	r3, [r7, #8]
	//clear MODEy[1:0] and CNFy[1:0]
	(*configregister) &=~(0XF<<get_position(pinconfig->pinNumber));
 80018e8:	683b      	ldr	r3, [r7, #0]
 80018ea:	881b      	ldrh	r3, [r3, #0]
 80018ec:	4618      	mov	r0, r3
 80018ee:	f7ff ff31 	bl	8001754 <get_position>
 80018f2:	4603      	mov	r3, r0
 80018f4:	461a      	mov	r2, r3
 80018f6:	230f      	movs	r3, #15
 80018f8:	4093      	lsls	r3, r2
 80018fa:	43da      	mvns	r2, r3
 80018fc:	68bb      	ldr	r3, [r7, #8]
 80018fe:	681b      	ldr	r3, [r3, #0]
 8001900:	401a      	ands	r2, r3
 8001902:	68bb      	ldr	r3, [r7, #8]
 8001904:	601a      	str	r2, [r3, #0]
	//if pin is output
	if(pinconfig->GPIO_MODE == GPIO_MODE_OUTPUT_AF_OD || pinconfig->GPIO_MODE == GPIO_MODE_OUTPUT_AF_PP || pinconfig->GPIO_MODE == GPIO_MODE_OUTPUT_OD || pinconfig->GPIO_MODE == GPIO_MODE_OUTPUT_PP)
 8001906:	683b      	ldr	r3, [r7, #0]
 8001908:	789b      	ldrb	r3, [r3, #2]
 800190a:	2b07      	cmp	r3, #7
 800190c:	d00b      	beq.n	8001926 <MCAL_GPIO_Init+0x62>
 800190e:	683b      	ldr	r3, [r7, #0]
 8001910:	789b      	ldrb	r3, [r3, #2]
 8001912:	2b06      	cmp	r3, #6
 8001914:	d007      	beq.n	8001926 <MCAL_GPIO_Init+0x62>
 8001916:	683b      	ldr	r3, [r7, #0]
 8001918:	789b      	ldrb	r3, [r3, #2]
 800191a:	2b05      	cmp	r3, #5
 800191c:	d003      	beq.n	8001926 <MCAL_GPIO_Init+0x62>
 800191e:	683b      	ldr	r3, [r7, #0]
 8001920:	789b      	ldrb	r3, [r3, #2]
 8001922:	2b04      	cmp	r3, #4
 8001924:	d10e      	bne.n	8001944 <MCAL_GPIO_Init+0x80>
	{
		//set MODEy[1:0] and CNFy[1:0]
		pin_config = ((((pinconfig->GPIO_MODE - 4) <<2) | (pinconfig->GPIO_OUTPUT_Speed)) & 0x0f);
 8001926:	683b      	ldr	r3, [r7, #0]
 8001928:	789b      	ldrb	r3, [r3, #2]
 800192a:	3b04      	subs	r3, #4
 800192c:	009b      	lsls	r3, r3, #2
 800192e:	b25a      	sxtb	r2, r3
 8001930:	683b      	ldr	r3, [r7, #0]
 8001932:	78db      	ldrb	r3, [r3, #3]
 8001934:	b25b      	sxtb	r3, r3
 8001936:	4313      	orrs	r3, r2
 8001938:	b25b      	sxtb	r3, r3
 800193a:	b2db      	uxtb	r3, r3
 800193c:	f003 030f 	and.w	r3, r3, #15
 8001940:	73fb      	strb	r3, [r7, #15]
 8001942:	e02c      	b.n	800199e <MCAL_GPIO_Init+0xda>
	}
	//if pin is input
	else
	{
		if(pinconfig->GPIO_MODE == GPIO_MODE_INPUT_FLO || pinconfig->GPIO_MODE == GPIO_MODE_Analog)
 8001944:	683b      	ldr	r3, [r7, #0]
 8001946:	789b      	ldrb	r3, [r3, #2]
 8001948:	2b01      	cmp	r3, #1
 800194a:	d003      	beq.n	8001954 <MCAL_GPIO_Init+0x90>
 800194c:	683b      	ldr	r3, [r7, #0]
 800194e:	789b      	ldrb	r3, [r3, #2]
 8001950:	2b00      	cmp	r3, #0
 8001952:	d107      	bne.n	8001964 <MCAL_GPIO_Init+0xa0>
		{
			//set MODEy[1:0] and CNFy[1:0]
			pin_config = ((((pinconfig->GPIO_MODE) <<2)) &0x0f);
 8001954:	683b      	ldr	r3, [r7, #0]
 8001956:	789b      	ldrb	r3, [r3, #2]
 8001958:	009b      	lsls	r3, r3, #2
 800195a:	b2db      	uxtb	r3, r3
 800195c:	f003 030f 	and.w	r3, r3, #15
 8001960:	73fb      	strb	r3, [r7, #15]
 8001962:	e01c      	b.n	800199e <MCAL_GPIO_Init+0xda>

		}
		else if(pinconfig->GPIO_MODE == GPIO_MODE_INPUT_AF)
 8001964:	683b      	ldr	r3, [r7, #0]
 8001966:	789b      	ldrb	r3, [r3, #2]
 8001968:	2b08      	cmp	r3, #8
 800196a:	d102      	bne.n	8001972 <MCAL_GPIO_Init+0xae>
		{
			//set MODEy[1:0] and CNFy[1:0]
			pin_config = ((((GPIO_MODE_INPUT_FLO) <<2)) &0x0f);
 800196c:	2304      	movs	r3, #4
 800196e:	73fb      	strb	r3, [r7, #15]
 8001970:	e015      	b.n	800199e <MCAL_GPIO_Init+0xda>
		}
		else
		{
			//set MODEy[1:0] and CNFy[1:0]
			pin_config = ((((GPIO_MODE_INPUT_PU) <<2)) &0x0f);
 8001972:	2308      	movs	r3, #8
 8001974:	73fb      	strb	r3, [r7, #15]
			if(pinconfig->GPIO_MODE == GPIO_MODE_INPUT_PU)
 8001976:	683b      	ldr	r3, [r7, #0]
 8001978:	789b      	ldrb	r3, [r3, #2]
 800197a:	2b02      	cmp	r3, #2
 800197c:	d107      	bne.n	800198e <MCAL_GPIO_Init+0xca>
			{
				//  port bit configuration table px_ODR =1
				GPIOx->ODR  |=pinconfig->pinNumber;
 800197e:	687b      	ldr	r3, [r7, #4]
 8001980:	68db      	ldr	r3, [r3, #12]
 8001982:	683a      	ldr	r2, [r7, #0]
 8001984:	8812      	ldrh	r2, [r2, #0]
 8001986:	431a      	orrs	r2, r3
 8001988:	687b      	ldr	r3, [r7, #4]
 800198a:	60da      	str	r2, [r3, #12]
 800198c:	e007      	b.n	800199e <MCAL_GPIO_Init+0xda>
			}
			else
			{
				//  port bit configuration table px_ODR =0
				GPIOx->ODR  &=~(pinconfig->pinNumber);
 800198e:	687b      	ldr	r3, [r7, #4]
 8001990:	68db      	ldr	r3, [r3, #12]
 8001992:	683a      	ldr	r2, [r7, #0]
 8001994:	8812      	ldrh	r2, [r2, #0]
 8001996:	43d2      	mvns	r2, r2
 8001998:	401a      	ands	r2, r3
 800199a:	687b      	ldr	r3, [r7, #4]
 800199c:	60da      	str	r2, [r3, #12]
			}
		}
	}
	(*configregister) |=(pin_config<<get_position(pinconfig->pinNumber));
 800199e:	7bfc      	ldrb	r4, [r7, #15]
 80019a0:	683b      	ldr	r3, [r7, #0]
 80019a2:	881b      	ldrh	r3, [r3, #0]
 80019a4:	4618      	mov	r0, r3
 80019a6:	f7ff fed5 	bl	8001754 <get_position>
 80019aa:	4603      	mov	r3, r0
 80019ac:	fa04 f203 	lsl.w	r2, r4, r3
 80019b0:	68bb      	ldr	r3, [r7, #8]
 80019b2:	681b      	ldr	r3, [r3, #0]
 80019b4:	431a      	orrs	r2, r3
 80019b6:	68bb      	ldr	r3, [r7, #8]
 80019b8:	601a      	str	r2, [r3, #0]
}
 80019ba:	bf00      	nop
 80019bc:	3714      	adds	r7, #20
 80019be:	46bd      	mov	sp, r7
 80019c0:	bd90      	pop	{r4, r7, pc}

080019c2 <MCAL_GPIO_WritePin>:
* @param [in] 		-value: pin value
* @retval 			-none
* Note				-none
*/
void MCAL_GPIO_WritePin(GPIO_TypeDef *GPIOx ,uint16_t pinNumber ,uint8_t value)
{
 80019c2:	b480      	push	{r7}
 80019c4:	b083      	sub	sp, #12
 80019c6:	af00      	add	r7, sp, #0
 80019c8:	6078      	str	r0, [r7, #4]
 80019ca:	460b      	mov	r3, r1
 80019cc:	807b      	strh	r3, [r7, #2]
 80019ce:	4613      	mov	r3, r2
 80019d0:	707b      	strb	r3, [r7, #1]
	if (value != GPIO_PIN_RESET)
 80019d2:	787b      	ldrb	r3, [r7, #1]
 80019d4:	2b00      	cmp	r3, #0
 80019d6:	d003      	beq.n	80019e0 <MCAL_GPIO_WritePin+0x1e>
		 Bits 15:0 BSy: Port x Set bit y (y= 0 .. 15)
		These bits are write-only and can be accessed in Word mode only.
		0: No action on the corresponding ODRx bit
		1: Set the corresponding ODRx bit
		 */
		GPIOx->BSRR= (uint32_t) pinNumber;
 80019d8:	887a      	ldrh	r2, [r7, #2]
 80019da:	687b      	ldr	r3, [r7, #4]
 80019dc:	611a      	str	r2, [r3, #16]
		0: No action on the corresponding ODRx bit
		1: Reset the corresponding ODRx bit
		 */
		GPIOx->BRR= (uint32_t) pinNumber;
	}
}
 80019de:	e002      	b.n	80019e6 <MCAL_GPIO_WritePin+0x24>
		GPIOx->BRR= (uint32_t) pinNumber;
 80019e0:	887a      	ldrh	r2, [r7, #2]
 80019e2:	687b      	ldr	r3, [r7, #4]
 80019e4:	615a      	str	r2, [r3, #20]
}
 80019e6:	bf00      	nop
 80019e8:	370c      	adds	r7, #12
 80019ea:	46bd      	mov	sp, r7
 80019ec:	bc80      	pop	{r7}
 80019ee:	4770      	bx	lr

080019f0 <Slave_Status>:
* @param [in] 		-I2Cx:  specified I2Cx x=[ 1 : 2 ]
* @retval 			-none
* Note				-this function jump to call_interrupt in main .
*/
void Slave_Status(I2C_TypeDef* I2Cx , Slave_State state)
{
 80019f0:	b580      	push	{r7, lr}
 80019f2:	b084      	sub	sp, #16
 80019f4:	af00      	add	r7, sp, #0
 80019f6:	6078      	str	r0, [r7, #4]
 80019f8:	460b      	mov	r3, r1
 80019fa:	70fb      	strb	r3, [r7, #3]
	uint8_t index =  I2Cx == I2C1 ? 0 : 1 ;
 80019fc:	687b      	ldr	r3, [r7, #4]
 80019fe:	4a30      	ldr	r2, [pc, #192]	; (8001ac0 <Slave_Status+0xd0>)
 8001a00:	4293      	cmp	r3, r2
 8001a02:	bf14      	ite	ne
 8001a04:	2301      	movne	r3, #1
 8001a06:	2300      	moveq	r3, #0
 8001a08:	b2db      	uxtb	r3, r3
 8001a0a:	73fb      	strb	r3, [r7, #15]

	switch(state)
 8001a0c:	78fb      	ldrb	r3, [r7, #3]
 8001a0e:	2b03      	cmp	r3, #3
 8001a10:	d851      	bhi.n	8001ab6 <Slave_Status+0xc6>
 8001a12:	a201      	add	r2, pc, #4	; (adr r2, 8001a18 <Slave_Status+0x28>)
 8001a14:	f852 f023 	ldr.w	pc, [r2, r3, lsl #2]
 8001a18:	08001a29 	.word	0x08001a29
 8001a1c:	08001a4d 	.word	0x08001a4d
 8001a20:	08001a65 	.word	0x08001a65
 8001a24:	08001a89 	.word	0x08001a89
	{
	case I2C_EV_STOP :
		if(I2Cx->SR2 & (I2C_SR2_TRA))
 8001a28:	687b      	ldr	r3, [r7, #4]
 8001a2a:	699b      	ldr	r3, [r3, #24]
 8001a2c:	f003 0304 	and.w	r3, r3, #4
 8001a30:	2b00      	cmp	r3, #0
 8001a32:	d03b      	beq.n	8001aac <Slave_Status+0xbc>
		{
			//Stop condition is detected on the bus by the slave after an acknowledge
			g_I2C_Config[index].P_IRQ_CALL(I2C_EV_STOP);
 8001a34:	7bfa      	ldrb	r2, [r7, #15]
 8001a36:	4923      	ldr	r1, [pc, #140]	; (8001ac4 <Slave_Status+0xd4>)
 8001a38:	4613      	mov	r3, r2
 8001a3a:	00db      	lsls	r3, r3, #3
 8001a3c:	1a9b      	subs	r3, r3, r2
 8001a3e:	009b      	lsls	r3, r3, #2
 8001a40:	440b      	add	r3, r1
 8001a42:	3318      	adds	r3, #24
 8001a44:	681b      	ldr	r3, [r3, #0]
 8001a46:	2000      	movs	r0, #0
 8001a48:	4798      	blx	r3
		}
		break;
 8001a4a:	e02f      	b.n	8001aac <Slave_Status+0xbc>
	case I2C_EV_ADDR_Matched :
		//address matched with the OAR registers content or a general call
		g_I2C_Config[index].P_IRQ_CALL(I2C_EV_ADDR_Matched);
 8001a4c:	7bfa      	ldrb	r2, [r7, #15]
 8001a4e:	491d      	ldr	r1, [pc, #116]	; (8001ac4 <Slave_Status+0xd4>)
 8001a50:	4613      	mov	r3, r2
 8001a52:	00db      	lsls	r3, r3, #3
 8001a54:	1a9b      	subs	r3, r3, r2
 8001a56:	009b      	lsls	r3, r3, #2
 8001a58:	440b      	add	r3, r1
 8001a5a:	3318      	adds	r3, #24
 8001a5c:	681b      	ldr	r3, [r3, #0]
 8001a5e:	2001      	movs	r0, #1
 8001a60:	4798      	blx	r3
		break;
 8001a62:	e028      	b.n	8001ab6 <Slave_Status+0xc6>
	case I2C_EV_DATA_REQ :
		if(I2Cx->SR2 & (I2C_SR2_TRA))
 8001a64:	687b      	ldr	r3, [r7, #4]
 8001a66:	699b      	ldr	r3, [r3, #24]
 8001a68:	f003 0304 	and.w	r3, r3, #4
 8001a6c:	2b00      	cmp	r3, #0
 8001a6e:	d01f      	beq.n	8001ab0 <Slave_Status+0xc0>
		{
			// the APP layer should send the data
			g_I2C_Config[index].P_IRQ_CALL(I2C_EV_DATA_REQ);
 8001a70:	7bfa      	ldrb	r2, [r7, #15]
 8001a72:	4914      	ldr	r1, [pc, #80]	; (8001ac4 <Slave_Status+0xd4>)
 8001a74:	4613      	mov	r3, r2
 8001a76:	00db      	lsls	r3, r3, #3
 8001a78:	1a9b      	subs	r3, r3, r2
 8001a7a:	009b      	lsls	r3, r3, #2
 8001a7c:	440b      	add	r3, r1
 8001a7e:	3318      	adds	r3, #24
 8001a80:	681b      	ldr	r3, [r3, #0]
 8001a82:	2002      	movs	r0, #2
 8001a84:	4798      	blx	r3
		}
		break;
 8001a86:	e013      	b.n	8001ab0 <Slave_Status+0xc0>
	case I2C_EV_DATA_RCV :
		// Make Sure the Slave is really in receiver mode
		if(!(I2Cx->SR2 & (I2C_SR2_TRA)))
 8001a88:	687b      	ldr	r3, [r7, #4]
 8001a8a:	699b      	ldr	r3, [r3, #24]
 8001a8c:	f003 0304 	and.w	r3, r3, #4
 8001a90:	2b00      	cmp	r3, #0
 8001a92:	d10f      	bne.n	8001ab4 <Slave_Status+0xc4>
		{
			// the APP layer should read the data
			g_I2C_Config[index].P_IRQ_CALL(I2C_EV_DATA_RCV);
 8001a94:	7bfa      	ldrb	r2, [r7, #15]
 8001a96:	490b      	ldr	r1, [pc, #44]	; (8001ac4 <Slave_Status+0xd4>)
 8001a98:	4613      	mov	r3, r2
 8001a9a:	00db      	lsls	r3, r3, #3
 8001a9c:	1a9b      	subs	r3, r3, r2
 8001a9e:	009b      	lsls	r3, r3, #2
 8001aa0:	440b      	add	r3, r1
 8001aa2:	3318      	adds	r3, #24
 8001aa4:	681b      	ldr	r3, [r3, #0]
 8001aa6:	2003      	movs	r0, #3
 8001aa8:	4798      	blx	r3
		}
		break;
 8001aaa:	e003      	b.n	8001ab4 <Slave_Status+0xc4>
		break;
 8001aac:	bf00      	nop
 8001aae:	e002      	b.n	8001ab6 <Slave_Status+0xc6>
		break;
 8001ab0:	bf00      	nop
 8001ab2:	e000      	b.n	8001ab6 <Slave_Status+0xc6>
		break;
 8001ab4:	bf00      	nop
	}
}
 8001ab6:	bf00      	nop
 8001ab8:	3710      	adds	r7, #16
 8001aba:	46bd      	mov	sp, r7
 8001abc:	bd80      	pop	{r7, pc}
 8001abe:	bf00      	nop
 8001ac0:	40005400 	.word	0x40005400
 8001ac4:	2000008c 	.word	0x2000008c

08001ac8 <I2C1_EV_IRQHandler>:
 *                      ISR Function Definitions
 *
 * ===============================================================
 */
void I2C1_EV_IRQHandler()
{
 8001ac8:	b580      	push	{r7, lr}
 8001aca:	b084      	sub	sp, #16
 8001acc:	af00      	add	r7, sp, #0
	volatile uint32_t Dummy_Read = 0;
 8001ace:	2300      	movs	r3, #0
 8001ad0:	603b      	str	r3, [r7, #0]

	uint32_t Temp_1, Temp_2, Temp_3;

	Temp_3 = (I2C1->SR1 & (I2C_SR1_STOPF));		// Stop detection (slave mode)
 8001ad2:	4b36      	ldr	r3, [pc, #216]	; (8001bac <I2C1_EV_IRQHandler+0xe4>)
 8001ad4:	695b      	ldr	r3, [r3, #20]
 8001ad6:	f003 0310 	and.w	r3, r3, #16
 8001ada:	60fb      	str	r3, [r7, #12]
	Temp_1 = (I2C1->CR2 & (I2C_CR2_ITEVTEN));	// Event interrupt enable
 8001adc:	4b33      	ldr	r3, [pc, #204]	; (8001bac <I2C1_EV_IRQHandler+0xe4>)
 8001ade:	685b      	ldr	r3, [r3, #4]
 8001ae0:	f403 7300 	and.w	r3, r3, #512	; 0x200
 8001ae4:	60bb      	str	r3, [r7, #8]
	Temp_2 = (I2C1->CR2 & (I2C_CR2_ITBUFEN));	// Buffer interrupt enable
 8001ae6:	4b31      	ldr	r3, [pc, #196]	; (8001bac <I2C1_EV_IRQHandler+0xe4>)
 8001ae8:	685b      	ldr	r3, [r3, #4]
 8001aea:	f403 6380 	and.w	r3, r3, #1024	; 0x400
 8001aee:	607b      	str	r3, [r7, #4]
	//check Stop detection
	if(Temp_1 && Temp_3)
 8001af0:	68bb      	ldr	r3, [r7, #8]
 8001af2:	2b00      	cmp	r3, #0
 8001af4:	d00a      	beq.n	8001b0c <I2C1_EV_IRQHandler+0x44>
 8001af6:	68fb      	ldr	r3, [r7, #12]
 8001af8:	2b00      	cmp	r3, #0
 8001afa:	d007      	beq.n	8001b0c <I2C1_EV_IRQHandler+0x44>
	{
		//Cleared by software reading the SR1 register followed by a write in the CR1 register, or by hardware when PE=0
		I2C1->CR1 |= 0x0000;
 8001afc:	4b2b      	ldr	r3, [pc, #172]	; (8001bac <I2C1_EV_IRQHandler+0xe4>)
 8001afe:	4a2b      	ldr	r2, [pc, #172]	; (8001bac <I2C1_EV_IRQHandler+0xe4>)
 8001b00:	681b      	ldr	r3, [r3, #0]
 8001b02:	6013      	str	r3, [r2, #0]
		Slave_Status(I2C1 , I2C_EV_STOP);
 8001b04:	2100      	movs	r1, #0
 8001b06:	4829      	ldr	r0, [pc, #164]	; (8001bac <I2C1_EV_IRQHandler+0xe4>)
 8001b08:	f7ff ff72 	bl	80019f0 <Slave_Status>
	}
	// Check address matched.
	Temp_3 = (I2C1->SR1 & (I2C_SR1_ADDR));
 8001b0c:	4b27      	ldr	r3, [pc, #156]	; (8001bac <I2C1_EV_IRQHandler+0xe4>)
 8001b0e:	695b      	ldr	r3, [r3, #20]
 8001b10:	f003 0302 	and.w	r3, r3, #2
 8001b14:	60fb      	str	r3, [r7, #12]
	if(Temp_1 && Temp_3)
 8001b16:	68bb      	ldr	r3, [r7, #8]
 8001b18:	2b00      	cmp	r3, #0
 8001b1a:	d012      	beq.n	8001b42 <I2C1_EV_IRQHandler+0x7a>
 8001b1c:	68fb      	ldr	r3, [r7, #12]
 8001b1e:	2b00      	cmp	r3, #0
 8001b20:	d00f      	beq.n	8001b42 <I2C1_EV_IRQHandler+0x7a>
	{
		// Note: In slave mode, it is recommended to perform the complete clearing sequence (READ SR1 then READ SR2) after ADDR is set. Refer to Figure 272
		// Check master mode or slave mode
		if(I2C1->SR2 & (I2C_SR2_MSL))
 8001b22:	4b22      	ldr	r3, [pc, #136]	; (8001bac <I2C1_EV_IRQHandler+0xe4>)
 8001b24:	699b      	ldr	r3, [r3, #24]
 8001b26:	f003 0301 	and.w	r3, r3, #1
 8001b2a:	2b00      	cmp	r3, #0
 8001b2c:	d109      	bne.n	8001b42 <I2C1_EV_IRQHandler+0x7a>
			// Master mode
		}
		else
		{
			// Slave mode
			Dummy_Read  = I2C1->SR1 ;
 8001b2e:	4b1f      	ldr	r3, [pc, #124]	; (8001bac <I2C1_EV_IRQHandler+0xe4>)
 8001b30:	695b      	ldr	r3, [r3, #20]
 8001b32:	603b      	str	r3, [r7, #0]
			Dummy_Read  = I2C1->SR2 ;
 8001b34:	4b1d      	ldr	r3, [pc, #116]	; (8001bac <I2C1_EV_IRQHandler+0xe4>)
 8001b36:	699b      	ldr	r3, [r3, #24]
 8001b38:	603b      	str	r3, [r7, #0]
			Slave_Status(I2C1 , I2C_EV_ADDR_Matched) ;
 8001b3a:	2101      	movs	r1, #1
 8001b3c:	481b      	ldr	r0, [pc, #108]	; (8001bac <I2C1_EV_IRQHandler+0xe4>)
 8001b3e:	f7ff ff57 	bl	80019f0 <Slave_Status>
		}
	}
	// Data register empty at slave_transmitter
	Temp_3 = (I2C1->SR1 & (I2C_SR1_TXE));
 8001b42:	4b1a      	ldr	r3, [pc, #104]	; (8001bac <I2C1_EV_IRQHandler+0xe4>)
 8001b44:	695b      	ldr	r3, [r3, #20]
 8001b46:	f003 0380 	and.w	r3, r3, #128	; 0x80
 8001b4a:	60fb      	str	r3, [r7, #12]
	if(Temp_1 && Temp_2 && Temp_3)
 8001b4c:	68bb      	ldr	r3, [r7, #8]
 8001b4e:	2b00      	cmp	r3, #0
 8001b50:	d00f      	beq.n	8001b72 <I2C1_EV_IRQHandler+0xaa>
 8001b52:	687b      	ldr	r3, [r7, #4]
 8001b54:	2b00      	cmp	r3, #0
 8001b56:	d00c      	beq.n	8001b72 <I2C1_EV_IRQHandler+0xaa>
 8001b58:	68fb      	ldr	r3, [r7, #12]
 8001b5a:	2b00      	cmp	r3, #0
 8001b5c:	d009      	beq.n	8001b72 <I2C1_EV_IRQHandler+0xaa>
	{
		//Cleared by software writing to the DR register or by hardware after a start or a stop condition or when PE=0
		// Check master mode or slave mode
		if(I2C1->SR2 & (I2C_SR2_MSL))
 8001b5e:	4b13      	ldr	r3, [pc, #76]	; (8001bac <I2C1_EV_IRQHandler+0xe4>)
 8001b60:	699b      	ldr	r3, [r3, #24]
 8001b62:	f003 0301 	and.w	r3, r3, #1
 8001b66:	2b00      	cmp	r3, #0
 8001b68:	d103      	bne.n	8001b72 <I2C1_EV_IRQHandler+0xaa>
			// Master mode
		}
		else
		{
			// Slave mode
			Slave_Status(I2C1 , I2C_EV_DATA_REQ);
 8001b6a:	2102      	movs	r1, #2
 8001b6c:	480f      	ldr	r0, [pc, #60]	; (8001bac <I2C1_EV_IRQHandler+0xe4>)
 8001b6e:	f7ff ff3f 	bl	80019f0 <Slave_Status>
		}
	}
	// Data register not empty at slave receive
	Temp_3 = (I2C1->SR1 & (I2C_SR1_RXNE));
 8001b72:	4b0e      	ldr	r3, [pc, #56]	; (8001bac <I2C1_EV_IRQHandler+0xe4>)
 8001b74:	695b      	ldr	r3, [r3, #20]
 8001b76:	f003 0340 	and.w	r3, r3, #64	; 0x40
 8001b7a:	60fb      	str	r3, [r7, #12]
	if(Temp_1 && Temp_2 && Temp_3)
 8001b7c:	68bb      	ldr	r3, [r7, #8]
 8001b7e:	2b00      	cmp	r3, #0
 8001b80:	d00f      	beq.n	8001ba2 <I2C1_EV_IRQHandler+0xda>
 8001b82:	687b      	ldr	r3, [r7, #4]
 8001b84:	2b00      	cmp	r3, #0
 8001b86:	d00c      	beq.n	8001ba2 <I2C1_EV_IRQHandler+0xda>
 8001b88:	68fb      	ldr	r3, [r7, #12]
 8001b8a:	2b00      	cmp	r3, #0
 8001b8c:	d009      	beq.n	8001ba2 <I2C1_EV_IRQHandler+0xda>
	{
		// Check master mode or slave mode
		if(I2C1->SR2 & (I2C_SR2_MSL))
 8001b8e:	4b07      	ldr	r3, [pc, #28]	; (8001bac <I2C1_EV_IRQHandler+0xe4>)
 8001b90:	699b      	ldr	r3, [r3, #24]
 8001b92:	f003 0301 	and.w	r3, r3, #1
 8001b96:	2b00      	cmp	r3, #0
 8001b98:	d103      	bne.n	8001ba2 <I2C1_EV_IRQHandler+0xda>
			// Master mode
		}
		else
		{
			// Slave mode
			Slave_Status(I2C1 , I2C_EV_DATA_RCV);
 8001b9a:	2103      	movs	r1, #3
 8001b9c:	4803      	ldr	r0, [pc, #12]	; (8001bac <I2C1_EV_IRQHandler+0xe4>)
 8001b9e:	f7ff ff27 	bl	80019f0 <Slave_Status>
		}
	}
}
 8001ba2:	bf00      	nop
 8001ba4:	3710      	adds	r7, #16
 8001ba6:	46bd      	mov	sp, r7
 8001ba8:	bd80      	pop	{r7, pc}
 8001baa:	bf00      	nop
 8001bac:	40005400 	.word	0x40005400

08001bb0 <SPI1_IRQHandler>:
 *
 * ===============================================================
 */

void SPI1_IRQHandler ( void )
{
 8001bb0:	b580      	push	{r7, lr}
 8001bb2:	b082      	sub	sp, #8
 8001bb4:	af00      	add	r7, sp, #0
	struct S_IRQ_SRC IRQ_SRC ;
	IRQ_SRC.TXE   = ( ( SPI1->SR & 1<<1 ) >>1 )  ;
 8001bb6:	4b13      	ldr	r3, [pc, #76]	; (8001c04 <SPI1_IRQHandler+0x54>)
 8001bb8:	689b      	ldr	r3, [r3, #8]
 8001bba:	085b      	lsrs	r3, r3, #1
 8001bbc:	f003 0301 	and.w	r3, r3, #1
 8001bc0:	b2da      	uxtb	r2, r3
 8001bc2:	793b      	ldrb	r3, [r7, #4]
 8001bc4:	f362 0300 	bfi	r3, r2, #0, #1
 8001bc8:	713b      	strb	r3, [r7, #4]
	IRQ_SRC.RXNE  = ( ( SPI1->SR & 1<<0 ) >>0 )  ;
 8001bca:	4b0e      	ldr	r3, [pc, #56]	; (8001c04 <SPI1_IRQHandler+0x54>)
 8001bcc:	689b      	ldr	r3, [r3, #8]
 8001bce:	f003 0301 	and.w	r3, r3, #1
 8001bd2:	b2da      	uxtb	r2, r3
 8001bd4:	793b      	ldrb	r3, [r7, #4]
 8001bd6:	f362 0341 	bfi	r3, r2, #1, #1
 8001bda:	713b      	strb	r3, [r7, #4]
	IRQ_SRC.ERROR = ( ( SPI1->SR & 1<<4 ) >>4 )  ;
 8001bdc:	4b09      	ldr	r3, [pc, #36]	; (8001c04 <SPI1_IRQHandler+0x54>)
 8001bde:	689b      	ldr	r3, [r3, #8]
 8001be0:	091b      	lsrs	r3, r3, #4
 8001be2:	f003 0301 	and.w	r3, r3, #1
 8001be6:	b2da      	uxtb	r2, r3
 8001be8:	793b      	ldrb	r3, [r7, #4]
 8001bea:	f362 0382 	bfi	r3, r2, #2, #1
 8001bee:	713b      	strb	r3, [r7, #4]

	g_SPI_Config[0]->P_IRQ_CALL ( IRQ_SRC ) ;
 8001bf0:	4b05      	ldr	r3, [pc, #20]	; (8001c08 <SPI1_IRQHandler+0x58>)
 8001bf2:	681b      	ldr	r3, [r3, #0]
 8001bf4:	699b      	ldr	r3, [r3, #24]
 8001bf6:	7938      	ldrb	r0, [r7, #4]
 8001bf8:	4798      	blx	r3
}
 8001bfa:	bf00      	nop
 8001bfc:	3708      	adds	r7, #8
 8001bfe:	46bd      	mov	sp, r7
 8001c00:	bd80      	pop	{r7, pc}
 8001c02:	bf00      	nop
 8001c04:	40013000 	.word	0x40013000
 8001c08:	200000c4 	.word	0x200000c4

08001c0c <SPI2_IRQHandler>:

void SPI2_IRQHandler ( void )
{
 8001c0c:	b580      	push	{r7, lr}
 8001c0e:	b082      	sub	sp, #8
 8001c10:	af00      	add	r7, sp, #0
	struct S_IRQ_SRC IRQ_SRC ;
	IRQ_SRC.TXE   = ( ( SPI2->SR & 1<<1 ) >>1 )  ;
 8001c12:	4b13      	ldr	r3, [pc, #76]	; (8001c60 <SPI2_IRQHandler+0x54>)
 8001c14:	689b      	ldr	r3, [r3, #8]
 8001c16:	085b      	lsrs	r3, r3, #1
 8001c18:	f003 0301 	and.w	r3, r3, #1
 8001c1c:	b2da      	uxtb	r2, r3
 8001c1e:	793b      	ldrb	r3, [r7, #4]
 8001c20:	f362 0300 	bfi	r3, r2, #0, #1
 8001c24:	713b      	strb	r3, [r7, #4]
	IRQ_SRC.RXNE  = ( ( SPI2->SR & 1<<0 ) >>0 )  ;
 8001c26:	4b0e      	ldr	r3, [pc, #56]	; (8001c60 <SPI2_IRQHandler+0x54>)
 8001c28:	689b      	ldr	r3, [r3, #8]
 8001c2a:	f003 0301 	and.w	r3, r3, #1
 8001c2e:	b2da      	uxtb	r2, r3
 8001c30:	793b      	ldrb	r3, [r7, #4]
 8001c32:	f362 0341 	bfi	r3, r2, #1, #1
 8001c36:	713b      	strb	r3, [r7, #4]
	IRQ_SRC.ERROR = ( ( SPI2->SR & 1<<4 ) >>4 )  ;
 8001c38:	4b09      	ldr	r3, [pc, #36]	; (8001c60 <SPI2_IRQHandler+0x54>)
 8001c3a:	689b      	ldr	r3, [r3, #8]
 8001c3c:	091b      	lsrs	r3, r3, #4
 8001c3e:	f003 0301 	and.w	r3, r3, #1
 8001c42:	b2da      	uxtb	r2, r3
 8001c44:	793b      	ldrb	r3, [r7, #4]
 8001c46:	f362 0382 	bfi	r3, r2, #2, #1
 8001c4a:	713b      	strb	r3, [r7, #4]

	g_SPI_Config[1]->P_IRQ_CALL ( IRQ_SRC ) ;
 8001c4c:	4b05      	ldr	r3, [pc, #20]	; (8001c64 <SPI2_IRQHandler+0x58>)
 8001c4e:	685b      	ldr	r3, [r3, #4]
 8001c50:	699b      	ldr	r3, [r3, #24]
 8001c52:	7938      	ldrb	r0, [r7, #4]
 8001c54:	4798      	blx	r3
}
 8001c56:	bf00      	nop
 8001c58:	3708      	adds	r7, #8
 8001c5a:	46bd      	mov	sp, r7
 8001c5c:	bd80      	pop	{r7, pc}
 8001c5e:	bf00      	nop
 8001c60:	40003800 	.word	0x40003800
 8001c64:	200000c4 	.word	0x200000c4

08001c68 <MCAL_TIMx_Init>:
* @param [in] 		-Chan:  specified channel from 1 to 4
* @retval 			-none
* Note				-Support Fast PWM and Normal ( delay mode )
*/
void MCAL_TIMx_Init( TIMx_TypeDef* TIMx , TIMx_config_t* TIMx_Config , channel Chan )
{
 8001c68:	b580      	push	{r7, lr}
 8001c6a:	b086      	sub	sp, #24
 8001c6c:	af00      	add	r7, sp, #0
 8001c6e:	60f8      	str	r0, [r7, #12]
 8001c70:	60b9      	str	r1, [r7, #8]
 8001c72:	4613      	mov	r3, r2
 8001c74:	71fb      	strb	r3, [r7, #7]
	GPIO_Pinconfig_t pinconfig ;
	// Enable counter and Disable update event
	TIMx->CR1=0b10000001;
 8001c76:	68fb      	ldr	r3, [r7, #12]
 8001c78:	2281      	movs	r2, #129	; 0x81
 8001c7a:	601a      	str	r2, [r3, #0]
	//set delay mode or PWM mode
	if(TIMx_Config->MODE != TIMx_MODE_Delay)
 8001c7c:	68bb      	ldr	r3, [r7, #8]
 8001c7e:	881b      	ldrh	r3, [r3, #0]
 8001c80:	2b02      	cmp	r3, #2
 8001c82:	f000 80d3 	beq.w	8001e2c <MCAL_TIMx_Init+0x1c4>
	{
		// set pin
		if(TIMx==TIM2)
 8001c86:	68fb      	ldr	r3, [r7, #12]
 8001c88:	f1b3 4f80 	cmp.w	r3, #1073741824	; 0x40000000
 8001c8c:	d131      	bne.n	8001cf2 <MCAL_TIMx_Init+0x8a>
		{
			RCC_TIM2_CLK_Enable();//clock enable
 8001c8e:	4ba0      	ldr	r3, [pc, #640]	; (8001f10 <MCAL_TIMx_Init+0x2a8>)
 8001c90:	69db      	ldr	r3, [r3, #28]
 8001c92:	4a9f      	ldr	r2, [pc, #636]	; (8001f10 <MCAL_TIMx_Init+0x2a8>)
 8001c94:	f043 0301 	orr.w	r3, r3, #1
 8001c98:	61d3      	str	r3, [r2, #28]
			pinconfig.GPIO_MODE = GPIO_MODE_OUTPUT_AF_PP  ;
 8001c9a:	2306      	movs	r3, #6
 8001c9c:	75bb      	strb	r3, [r7, #22]
			pinconfig.GPIO_OUTPUT_Speed = GPIO_speed_10M ;
 8001c9e:	2301      	movs	r3, #1
 8001ca0:	75fb      	strb	r3, [r7, #23]
			switch(Chan)
 8001ca2:	79fb      	ldrb	r3, [r7, #7]
 8001ca4:	2b03      	cmp	r3, #3
 8001ca6:	d817      	bhi.n	8001cd8 <MCAL_TIMx_Init+0x70>
 8001ca8:	a201      	add	r2, pc, #4	; (adr r2, 8001cb0 <MCAL_TIMx_Init+0x48>)
 8001caa:	f852 f023 	ldr.w	pc, [r2, r3, lsl #2]
 8001cae:	bf00      	nop
 8001cb0:	08001cc1 	.word	0x08001cc1
 8001cb4:	08001cc7 	.word	0x08001cc7
 8001cb8:	08001ccd 	.word	0x08001ccd
 8001cbc:	08001cd3 	.word	0x08001cd3
			{
			case CH1 :
				{
					//set pin outpt
					pinconfig.pinNumber = GPIO_PIN_0 ;
 8001cc0:	2301      	movs	r3, #1
 8001cc2:	82bb      	strh	r3, [r7, #20]
					break;
 8001cc4:	e008      	b.n	8001cd8 <MCAL_TIMx_Init+0x70>
				}
			case CH2 :
				{
					//set pin output
					pinconfig.pinNumber = GPIO_PIN_1 ;
 8001cc6:	2302      	movs	r3, #2
 8001cc8:	82bb      	strh	r3, [r7, #20]
					break;
 8001cca:	e005      	b.n	8001cd8 <MCAL_TIMx_Init+0x70>
				}
			case CH3 :
				{
					//set pin output
					pinconfig.pinNumber = GPIO_PIN_2 ;
 8001ccc:	2304      	movs	r3, #4
 8001cce:	82bb      	strh	r3, [r7, #20]
					break;
 8001cd0:	e002      	b.n	8001cd8 <MCAL_TIMx_Init+0x70>
				}
			case CH4 :
				{
					//set pin output
					pinconfig.pinNumber = GPIO_PIN_3 ;
 8001cd2:	2308      	movs	r3, #8
 8001cd4:	82bb      	strh	r3, [r7, #20]
					break;
 8001cd6:	bf00      	nop
				}
			}
			MCAL_GPIO_Init(GPIOA, &pinconfig) ;
 8001cd8:	f107 0314 	add.w	r3, r7, #20
 8001cdc:	4619      	mov	r1, r3
 8001cde:	488d      	ldr	r0, [pc, #564]	; (8001f14 <MCAL_TIMx_Init+0x2ac>)
 8001ce0:	f7ff fdf0 	bl	80018c4 <MCAL_GPIO_Init>
			//Disable interrupt
			 NVIC_IRQ28_TIM2_Disable();
 8001ce4:	4b8c      	ldr	r3, [pc, #560]	; (8001f18 <MCAL_TIMx_Init+0x2b0>)
 8001ce6:	681b      	ldr	r3, [r3, #0]
 8001ce8:	4a8b      	ldr	r2, [pc, #556]	; (8001f18 <MCAL_TIMx_Init+0x2b0>)
 8001cea:	f043 5380 	orr.w	r3, r3, #268435456	; 0x10000000
 8001cee:	6013      	str	r3, [r2, #0]
 8001cf0:	e072      	b.n	8001dd8 <MCAL_TIMx_Init+0x170>
		}
		else if(TIMx==TIM3)
 8001cf2:	68fb      	ldr	r3, [r7, #12]
 8001cf4:	4a89      	ldr	r2, [pc, #548]	; (8001f1c <MCAL_TIMx_Init+0x2b4>)
 8001cf6:	4293      	cmp	r3, r2
 8001cf8:	d13d      	bne.n	8001d76 <MCAL_TIMx_Init+0x10e>
		{
			pinconfig.GPIO_MODE = GPIO_MODE_OUTPUT_AF_PP  ;
 8001cfa:	2306      	movs	r3, #6
 8001cfc:	75bb      	strb	r3, [r7, #22]
			pinconfig.GPIO_OUTPUT_Speed = GPIO_speed_10M ;
 8001cfe:	2301      	movs	r3, #1
 8001d00:	75fb      	strb	r3, [r7, #23]
			switch(Chan)
 8001d02:	79fb      	ldrb	r3, [r7, #7]
 8001d04:	2b03      	cmp	r3, #3
 8001d06:	d82f      	bhi.n	8001d68 <MCAL_TIMx_Init+0x100>
 8001d08:	a201      	add	r2, pc, #4	; (adr r2, 8001d10 <MCAL_TIMx_Init+0xa8>)
 8001d0a:	f852 f023 	ldr.w	pc, [r2, r3, lsl #2]
 8001d0e:	bf00      	nop
 8001d10:	08001d21 	.word	0x08001d21
 8001d14:	08001d33 	.word	0x08001d33
 8001d18:	08001d45 	.word	0x08001d45
 8001d1c:	08001d57 	.word	0x08001d57
			{
			case CH1 :
				{
					//set pin output
					pinconfig.pinNumber = GPIO_PIN_6 ;
 8001d20:	2340      	movs	r3, #64	; 0x40
 8001d22:	82bb      	strh	r3, [r7, #20]
					MCAL_GPIO_Init(GPIOA, &pinconfig) ;
 8001d24:	f107 0314 	add.w	r3, r7, #20
 8001d28:	4619      	mov	r1, r3
 8001d2a:	487a      	ldr	r0, [pc, #488]	; (8001f14 <MCAL_TIMx_Init+0x2ac>)
 8001d2c:	f7ff fdca 	bl	80018c4 <MCAL_GPIO_Init>
					break;
 8001d30:	e01a      	b.n	8001d68 <MCAL_TIMx_Init+0x100>
				}
			case CH2 :
				{
					//set pin output
					pinconfig.pinNumber = GPIO_PIN_7 ;
 8001d32:	2380      	movs	r3, #128	; 0x80
 8001d34:	82bb      	strh	r3, [r7, #20]
					MCAL_GPIO_Init(GPIOA, &pinconfig) ;
 8001d36:	f107 0314 	add.w	r3, r7, #20
 8001d3a:	4619      	mov	r1, r3
 8001d3c:	4875      	ldr	r0, [pc, #468]	; (8001f14 <MCAL_TIMx_Init+0x2ac>)
 8001d3e:	f7ff fdc1 	bl	80018c4 <MCAL_GPIO_Init>
					break;
 8001d42:	e011      	b.n	8001d68 <MCAL_TIMx_Init+0x100>
				}
			case CH3 :
				{
					//set pin output
					pinconfig.pinNumber = GPIO_PIN_0 ;
 8001d44:	2301      	movs	r3, #1
 8001d46:	82bb      	strh	r3, [r7, #20]
					MCAL_GPIO_Init(GPIOB, &pinconfig) ;
 8001d48:	f107 0314 	add.w	r3, r7, #20
 8001d4c:	4619      	mov	r1, r3
 8001d4e:	4874      	ldr	r0, [pc, #464]	; (8001f20 <MCAL_TIMx_Init+0x2b8>)
 8001d50:	f7ff fdb8 	bl	80018c4 <MCAL_GPIO_Init>
					break;
 8001d54:	e008      	b.n	8001d68 <MCAL_TIMx_Init+0x100>
				}
			case CH4 :
				{
					//set pin output
					pinconfig.pinNumber = GPIO_PIN_1 ;
 8001d56:	2302      	movs	r3, #2
 8001d58:	82bb      	strh	r3, [r7, #20]
					MCAL_GPIO_Init(GPIOB, &pinconfig) ;
 8001d5a:	f107 0314 	add.w	r3, r7, #20
 8001d5e:	4619      	mov	r1, r3
 8001d60:	486f      	ldr	r0, [pc, #444]	; (8001f20 <MCAL_TIMx_Init+0x2b8>)
 8001d62:	f7ff fdaf 	bl	80018c4 <MCAL_GPIO_Init>
					break;
 8001d66:	bf00      	nop
				}
			}
			//Disable interrupt
			 NVIC_IRQ28_TIM2_Disable();
 8001d68:	4b6b      	ldr	r3, [pc, #428]	; (8001f18 <MCAL_TIMx_Init+0x2b0>)
 8001d6a:	681b      	ldr	r3, [r3, #0]
 8001d6c:	4a6a      	ldr	r2, [pc, #424]	; (8001f18 <MCAL_TIMx_Init+0x2b0>)
 8001d6e:	f043 5380 	orr.w	r3, r3, #268435456	; 0x10000000
 8001d72:	6013      	str	r3, [r2, #0]
 8001d74:	e030      	b.n	8001dd8 <MCAL_TIMx_Init+0x170>
		}
		else if(TIMx==TIM4)
 8001d76:	68fb      	ldr	r3, [r7, #12]
 8001d78:	4a6a      	ldr	r2, [pc, #424]	; (8001f24 <MCAL_TIMx_Init+0x2bc>)
 8001d7a:	4293      	cmp	r3, r2
 8001d7c:	d12c      	bne.n	8001dd8 <MCAL_TIMx_Init+0x170>
		{
			pinconfig.GPIO_MODE = GPIO_MODE_OUTPUT_AF_PP  ;
 8001d7e:	2306      	movs	r3, #6
 8001d80:	75bb      	strb	r3, [r7, #22]
			pinconfig.GPIO_OUTPUT_Speed = GPIO_speed_10M ;
 8001d82:	2301      	movs	r3, #1
 8001d84:	75fb      	strb	r3, [r7, #23]
			switch(Chan)
 8001d86:	79fb      	ldrb	r3, [r7, #7]
 8001d88:	2b03      	cmp	r3, #3
 8001d8a:	d819      	bhi.n	8001dc0 <MCAL_TIMx_Init+0x158>
 8001d8c:	a201      	add	r2, pc, #4	; (adr r2, 8001d94 <MCAL_TIMx_Init+0x12c>)
 8001d8e:	f852 f023 	ldr.w	pc, [r2, r3, lsl #2]
 8001d92:	bf00      	nop
 8001d94:	08001da5 	.word	0x08001da5
 8001d98:	08001dab 	.word	0x08001dab
 8001d9c:	08001db1 	.word	0x08001db1
 8001da0:	08001db9 	.word	0x08001db9
			{
			case CH1 :
				{
					//set pin output
					pinconfig.pinNumber = GPIO_PIN_6 ;
 8001da4:	2340      	movs	r3, #64	; 0x40
 8001da6:	82bb      	strh	r3, [r7, #20]
					break;
 8001da8:	e00a      	b.n	8001dc0 <MCAL_TIMx_Init+0x158>
				}
			case CH2 :
				{
					//set pin output
					pinconfig.pinNumber = GPIO_PIN_7 ;
 8001daa:	2380      	movs	r3, #128	; 0x80
 8001dac:	82bb      	strh	r3, [r7, #20]
					break;
 8001dae:	e007      	b.n	8001dc0 <MCAL_TIMx_Init+0x158>
				}
			case CH3 :
				{
					//set pin output
					pinconfig.pinNumber = GPIO_PIN_8 ;
 8001db0:	f44f 7380 	mov.w	r3, #256	; 0x100
 8001db4:	82bb      	strh	r3, [r7, #20]
					break;
 8001db6:	e003      	b.n	8001dc0 <MCAL_TIMx_Init+0x158>
				}
			case CH4 :
				{
					//set pin output
					pinconfig.pinNumber = GPIO_PIN_9 ;
 8001db8:	f44f 7300 	mov.w	r3, #512	; 0x200
 8001dbc:	82bb      	strh	r3, [r7, #20]

					break;
 8001dbe:	bf00      	nop
				}
			}
			MCAL_GPIO_Init(GPIOB, &pinconfig) ;
 8001dc0:	f107 0314 	add.w	r3, r7, #20
 8001dc4:	4619      	mov	r1, r3
 8001dc6:	4856      	ldr	r0, [pc, #344]	; (8001f20 <MCAL_TIMx_Init+0x2b8>)
 8001dc8:	f7ff fd7c 	bl	80018c4 <MCAL_GPIO_Init>
			//Disable interrupt
			 NVIC_IRQ30_TIM4_Disable();
 8001dcc:	4b52      	ldr	r3, [pc, #328]	; (8001f18 <MCAL_TIMx_Init+0x2b0>)
 8001dce:	681b      	ldr	r3, [r3, #0]
 8001dd0:	4a51      	ldr	r2, [pc, #324]	; (8001f18 <MCAL_TIMx_Init+0x2b0>)
 8001dd2:	f043 4380 	orr.w	r3, r3, #1073741824	; 0x40000000
 8001dd6:	6013      	str	r3, [r2, #0]
		}
		// set PWM mode 1 or PWM mode 2 and Output compare  preload enable
		switch(Chan)
 8001dd8:	79fb      	ldrb	r3, [r7, #7]
 8001dda:	2b03      	cmp	r3, #3
 8001ddc:	d850      	bhi.n	8001e80 <MCAL_TIMx_Init+0x218>
 8001dde:	a201      	add	r2, pc, #4	; (adr r2, 8001de4 <MCAL_TIMx_Init+0x17c>)
 8001de0:	f852 f023 	ldr.w	pc, [r2, r3, lsl #2]
 8001de4:	08001df5 	.word	0x08001df5
 8001de8:	08001e03 	.word	0x08001e03
 8001dec:	08001e11 	.word	0x08001e11
 8001df0:	08001e1f 	.word	0x08001e1f
		{
		case CH1 :
			{
				TIMx->CCMR1 |=15<<3;
 8001df4:	68fb      	ldr	r3, [r7, #12]
 8001df6:	699b      	ldr	r3, [r3, #24]
 8001df8:	f043 0278 	orr.w	r2, r3, #120	; 0x78
 8001dfc:	68fb      	ldr	r3, [r7, #12]
 8001dfe:	619a      	str	r2, [r3, #24]
				break;
 8001e00:	e03e      	b.n	8001e80 <MCAL_TIMx_Init+0x218>
			}
		case CH2 :
			{
				TIMx->CCMR1 |=15<<11;
 8001e02:	68fb      	ldr	r3, [r7, #12]
 8001e04:	699b      	ldr	r3, [r3, #24]
 8001e06:	f443 42f0 	orr.w	r2, r3, #30720	; 0x7800
 8001e0a:	68fb      	ldr	r3, [r7, #12]
 8001e0c:	619a      	str	r2, [r3, #24]
				break;
 8001e0e:	e037      	b.n	8001e80 <MCAL_TIMx_Init+0x218>
			}
		case CH3 :
			{
				TIMx->CCMR2 |=15<<3;
 8001e10:	68fb      	ldr	r3, [r7, #12]
 8001e12:	69db      	ldr	r3, [r3, #28]
 8001e14:	f043 0278 	orr.w	r2, r3, #120	; 0x78
 8001e18:	68fb      	ldr	r3, [r7, #12]
 8001e1a:	61da      	str	r2, [r3, #28]
				break;
 8001e1c:	e030      	b.n	8001e80 <MCAL_TIMx_Init+0x218>
			}
		case CH4 :
			{
				TIMx->CCMR2 |=15<<11;
 8001e1e:	68fb      	ldr	r3, [r7, #12]
 8001e20:	69db      	ldr	r3, [r3, #28]
 8001e22:	f443 42f0 	orr.w	r2, r3, #30720	; 0x7800
 8001e26:	68fb      	ldr	r3, [r7, #12]
 8001e28:	61da      	str	r2, [r3, #28]
				break;
 8001e2a:	e029      	b.n	8001e80 <MCAL_TIMx_Init+0x218>
		}
	}
	else
	{
		//delay mode
		switch(Chan)
 8001e2c:	79fb      	ldrb	r3, [r7, #7]
 8001e2e:	2b03      	cmp	r3, #3
 8001e30:	d826      	bhi.n	8001e80 <MCAL_TIMx_Init+0x218>
 8001e32:	a201      	add	r2, pc, #4	; (adr r2, 8001e38 <MCAL_TIMx_Init+0x1d0>)
 8001e34:	f852 f023 	ldr.w	pc, [r2, r3, lsl #2]
 8001e38:	08001e49 	.word	0x08001e49
 8001e3c:	08001e57 	.word	0x08001e57
 8001e40:	08001e65 	.word	0x08001e65
 8001e44:	08001e73 	.word	0x08001e73
		{
		case CH1 :
			{
				TIMx->CCMR1 &=~(15<<3);
 8001e48:	68fb      	ldr	r3, [r7, #12]
 8001e4a:	699b      	ldr	r3, [r3, #24]
 8001e4c:	f023 0278 	bic.w	r2, r3, #120	; 0x78
 8001e50:	68fb      	ldr	r3, [r7, #12]
 8001e52:	619a      	str	r2, [r3, #24]
				break;
 8001e54:	e014      	b.n	8001e80 <MCAL_TIMx_Init+0x218>
			}
		case CH2 :
			{
				TIMx->CCMR1 &=~(15<<11);
 8001e56:	68fb      	ldr	r3, [r7, #12]
 8001e58:	699b      	ldr	r3, [r3, #24]
 8001e5a:	f423 42f0 	bic.w	r2, r3, #30720	; 0x7800
 8001e5e:	68fb      	ldr	r3, [r7, #12]
 8001e60:	619a      	str	r2, [r3, #24]
				break;
 8001e62:	e00d      	b.n	8001e80 <MCAL_TIMx_Init+0x218>
			}
		case CH3 :
			{
				TIMx->CCMR2 &=~(15<<3);
 8001e64:	68fb      	ldr	r3, [r7, #12]
 8001e66:	69db      	ldr	r3, [r3, #28]
 8001e68:	f023 0278 	bic.w	r2, r3, #120	; 0x78
 8001e6c:	68fb      	ldr	r3, [r7, #12]
 8001e6e:	61da      	str	r2, [r3, #28]
				break;
 8001e70:	e006      	b.n	8001e80 <MCAL_TIMx_Init+0x218>
			}
		case CH4 :
			{
				TIMx->CCMR2  &=~(15<<11);
 8001e72:	68fb      	ldr	r3, [r7, #12]
 8001e74:	69db      	ldr	r3, [r3, #28]
 8001e76:	f423 42f0 	bic.w	r2, r3, #30720	; 0x7800
 8001e7a:	68fb      	ldr	r3, [r7, #12]
 8001e7c:	61da      	str	r2, [r3, #28]
				break;
 8001e7e:	bf00      	nop
			}
		}
	}
	//output polarity and  output enable
	switch(Chan)
 8001e80:	79fb      	ldrb	r3, [r7, #7]
 8001e82:	2b03      	cmp	r3, #3
 8001e84:	d836      	bhi.n	8001ef4 <MCAL_TIMx_Init+0x28c>
 8001e86:	a201      	add	r2, pc, #4	; (adr r2, 8001e8c <MCAL_TIMx_Init+0x224>)
 8001e88:	f852 f023 	ldr.w	pc, [r2, r3, lsl #2]
 8001e8c:	08001e9d 	.word	0x08001e9d
 8001e90:	08001eb3 	.word	0x08001eb3
 8001e94:	08001ec9 	.word	0x08001ec9
 8001e98:	08001edf 	.word	0x08001edf
	{
	case CH1 :
		{
			TIMx->CCER|=1<<0;
 8001e9c:	68fb      	ldr	r3, [r7, #12]
 8001e9e:	6a1b      	ldr	r3, [r3, #32]
 8001ea0:	f043 0201 	orr.w	r2, r3, #1
 8001ea4:	68fb      	ldr	r3, [r7, #12]
 8001ea6:	621a      	str	r2, [r3, #32]
			//set init Compare value 10000
			TIMx->CCR1 = 10000;
 8001ea8:	68fb      	ldr	r3, [r7, #12]
 8001eaa:	f242 7210 	movw	r2, #10000	; 0x2710
 8001eae:	635a      	str	r2, [r3, #52]	; 0x34
			break;
 8001eb0:	e020      	b.n	8001ef4 <MCAL_TIMx_Init+0x28c>
		}
	case CH2 :
		{
			TIMx->CCER|=1<<4;
 8001eb2:	68fb      	ldr	r3, [r7, #12]
 8001eb4:	6a1b      	ldr	r3, [r3, #32]
 8001eb6:	f043 0210 	orr.w	r2, r3, #16
 8001eba:	68fb      	ldr	r3, [r7, #12]
 8001ebc:	621a      	str	r2, [r3, #32]
			//set init Compare value 10000
			TIMx->CCR2 = 10000;
 8001ebe:	68fb      	ldr	r3, [r7, #12]
 8001ec0:	f242 7210 	movw	r2, #10000	; 0x2710
 8001ec4:	639a      	str	r2, [r3, #56]	; 0x38
			break;
 8001ec6:	e015      	b.n	8001ef4 <MCAL_TIMx_Init+0x28c>
		}
	case CH3 :
		{
			TIMx->CCER|=1<<8;
 8001ec8:	68fb      	ldr	r3, [r7, #12]
 8001eca:	6a1b      	ldr	r3, [r3, #32]
 8001ecc:	f443 7280 	orr.w	r2, r3, #256	; 0x100
 8001ed0:	68fb      	ldr	r3, [r7, #12]
 8001ed2:	621a      	str	r2, [r3, #32]
			//set init Compare value 10000
			TIMx->CCR3 = 10000;
 8001ed4:	68fb      	ldr	r3, [r7, #12]
 8001ed6:	f242 7210 	movw	r2, #10000	; 0x2710
 8001eda:	63da      	str	r2, [r3, #60]	; 0x3c
			break;
 8001edc:	e00a      	b.n	8001ef4 <MCAL_TIMx_Init+0x28c>
		}
	case CH4 :
		{
			TIMx->CCER|=1<<12;
 8001ede:	68fb      	ldr	r3, [r7, #12]
 8001ee0:	6a1b      	ldr	r3, [r3, #32]
 8001ee2:	f443 5280 	orr.w	r2, r3, #4096	; 0x1000
 8001ee6:	68fb      	ldr	r3, [r7, #12]
 8001ee8:	621a      	str	r2, [r3, #32]
			//set init Compare value 10000
			TIMx->CCR4 = 10000;
 8001eea:	68fb      	ldr	r3, [r7, #12]
 8001eec:	f242 7210 	movw	r2, #10000	; 0x2710
 8001ef0:	641a      	str	r2, [r3, #64]	; 0x40
			break;
 8001ef2:	bf00      	nop
		}
	}
	// set Prescalers
	TIMx->PSC = TIMx_Config->Prescalers;
 8001ef4:	68bb      	ldr	r3, [r7, #8]
 8001ef6:	889b      	ldrh	r3, [r3, #4]
 8001ef8:	461a      	mov	r2, r3
 8001efa:	68fb      	ldr	r3, [r7, #12]
 8001efc:	629a      	str	r2, [r3, #40]	; 0x28
	//set init top value 20000
	TIMx->ARR = 20000;
 8001efe:	68fb      	ldr	r3, [r7, #12]
 8001f00:	f644 6220 	movw	r2, #20000	; 0x4e20
 8001f04:	62da      	str	r2, [r3, #44]	; 0x2c
}
 8001f06:	bf00      	nop
 8001f08:	3718      	adds	r7, #24
 8001f0a:	46bd      	mov	sp, r7
 8001f0c:	bd80      	pop	{r7, pc}
 8001f0e:	bf00      	nop
 8001f10:	40021000 	.word	0x40021000
 8001f14:	40010800 	.word	0x40010800
 8001f18:	e000e180 	.word	0xe000e180
 8001f1c:	40000400 	.word	0x40000400
 8001f20:	40010c00 	.word	0x40010c00
 8001f24:	40000800 	.word	0x40000800

08001f28 <MCAL_TIM4_CAP_Init>:



void MCAL_TIM4_CAP_Init(void)
{
 8001f28:	b580      	push	{r7, lr}
 8001f2a:	b082      	sub	sp, #8
 8001f2c:	af00      	add	r7, sp, #0
	TIM3->CR1=0b10000001;
 8001f2e:	4b10      	ldr	r3, [pc, #64]	; (8001f70 <MCAL_TIM4_CAP_Init+0x48>)
 8001f30:	2281      	movs	r2, #129	; 0x81
 8001f32:	601a      	str	r2, [r3, #0]
	//set pin capture input channel 1
	GPIO_Pinconfig_t pinconfig ;
	pinconfig.GPIO_MODE=GPIO_MODE_INPUT_FLO;
 8001f34:	2301      	movs	r3, #1
 8001f36:	71bb      	strb	r3, [r7, #6]
	pinconfig.pinNumber=GPIO_PIN_6;
 8001f38:	2340      	movs	r3, #64	; 0x40
 8001f3a:	80bb      	strh	r3, [r7, #4]
	MCAL_GPIO_Init(GPIOA, &pinconfig);
 8001f3c:	1d3b      	adds	r3, r7, #4
 8001f3e:	4619      	mov	r1, r3
 8001f40:	480c      	ldr	r0, [pc, #48]	; (8001f74 <MCAL_TIM4_CAP_Init+0x4c>)
 8001f42:	f7ff fcbf 	bl	80018c4 <MCAL_GPIO_Init>
	//set Prescalers 7+1=8 TIM4 Clock=8mhz/8=1mh
	TIM3->PSC=7;
 8001f46:	4b0a      	ldr	r3, [pc, #40]	; (8001f70 <MCAL_TIM4_CAP_Init+0x48>)
 8001f48:	2207      	movs	r2, #7
 8001f4a:	629a      	str	r2, [r3, #40]	; 0x28
	//set top value
	TIM3->ARR=0XFFFF;
 8001f4c:	4b08      	ldr	r3, [pc, #32]	; (8001f70 <MCAL_TIM4_CAP_Init+0x48>)
 8001f4e:	f64f 72ff 	movw	r2, #65535	; 0xffff
 8001f52:	62da      	str	r2, [r3, #44]	; 0x2c
	//CC1 channel is configured as input, IC1 is mapped on TI1
	TIM3->CCMR1 =0x31;
 8001f54:	4b06      	ldr	r3, [pc, #24]	; (8001f70 <MCAL_TIM4_CAP_Init+0x48>)
 8001f56:	2231      	movs	r2, #49	; 0x31
 8001f58:	619a      	str	r2, [r3, #24]
	// Enable capture on CC1
	TIM3->CCER |= (1<<0);
 8001f5a:	4b05      	ldr	r3, [pc, #20]	; (8001f70 <MCAL_TIM4_CAP_Init+0x48>)
 8001f5c:	6a1b      	ldr	r3, [r3, #32]
 8001f5e:	4a04      	ldr	r2, [pc, #16]	; (8001f70 <MCAL_TIM4_CAP_Init+0x48>)
 8001f60:	f043 0301 	orr.w	r3, r3, #1
 8001f64:	6213      	str	r3, [r2, #32]
}
 8001f66:	bf00      	nop
 8001f68:	3708      	adds	r7, #8
 8001f6a:	46bd      	mov	sp, r7
 8001f6c:	bd80      	pop	{r7, pc}
 8001f6e:	bf00      	nop
 8001f70:	40000400 	.word	0x40000400
 8001f74:	40010800 	.word	0x40010800

08001f78 <MCAL_TIM4_CAP_Get_High>:


float MCAL_TIM4_CAP_Get_High(void)
{
 8001f78:	b580      	push	{r7, lr}
 8001f7a:	b082      	sub	sp, #8
 8001f7c:	af00      	add	r7, sp, #0
	float dis=0;
 8001f7e:	f04f 0300 	mov.w	r3, #0
 8001f82:	607b      	str	r3, [r7, #4]
	TIM3->CCER &=~(1<<1);
 8001f84:	4b1b      	ldr	r3, [pc, #108]	; (8001ff4 <MCAL_TIM4_CAP_Get_High+0x7c>)
 8001f86:	6a1b      	ldr	r3, [r3, #32]
 8001f88:	4a1a      	ldr	r2, [pc, #104]	; (8001ff4 <MCAL_TIM4_CAP_Get_High+0x7c>)
 8001f8a:	f023 0302 	bic.w	r3, r3, #2
 8001f8e:	6213      	str	r3, [r2, #32]
	while(!(TIM3->SR &(1<<1)));
 8001f90:	bf00      	nop
 8001f92:	4b18      	ldr	r3, [pc, #96]	; (8001ff4 <MCAL_TIM4_CAP_Get_High+0x7c>)
 8001f94:	691b      	ldr	r3, [r3, #16]
 8001f96:	f003 0302 	and.w	r3, r3, #2
 8001f9a:	2b00      	cmp	r3, #0
 8001f9c:	d0f9      	beq.n	8001f92 <MCAL_TIM4_CAP_Get_High+0x1a>
	TIM3->EGR |=1<<0;
 8001f9e:	4b15      	ldr	r3, [pc, #84]	; (8001ff4 <MCAL_TIM4_CAP_Get_High+0x7c>)
 8001fa0:	695b      	ldr	r3, [r3, #20]
 8001fa2:	4a14      	ldr	r2, [pc, #80]	; (8001ff4 <MCAL_TIM4_CAP_Get_High+0x7c>)
 8001fa4:	f043 0301 	orr.w	r3, r3, #1
 8001fa8:	6153      	str	r3, [r2, #20]
	TIM3->SR=0;
 8001faa:	4b12      	ldr	r3, [pc, #72]	; (8001ff4 <MCAL_TIM4_CAP_Get_High+0x7c>)
 8001fac:	2200      	movs	r2, #0
 8001fae:	611a      	str	r2, [r3, #16]
	TIM3->CCER |=1<<1;
 8001fb0:	4b10      	ldr	r3, [pc, #64]	; (8001ff4 <MCAL_TIM4_CAP_Get_High+0x7c>)
 8001fb2:	6a1b      	ldr	r3, [r3, #32]
 8001fb4:	4a0f      	ldr	r2, [pc, #60]	; (8001ff4 <MCAL_TIM4_CAP_Get_High+0x7c>)
 8001fb6:	f043 0302 	orr.w	r3, r3, #2
 8001fba:	6213      	str	r3, [r2, #32]
	while(!(TIM3->SR &(1<<1)));
 8001fbc:	bf00      	nop
 8001fbe:	4b0d      	ldr	r3, [pc, #52]	; (8001ff4 <MCAL_TIM4_CAP_Get_High+0x7c>)
 8001fc0:	691b      	ldr	r3, [r3, #16]
 8001fc2:	f003 0302 	and.w	r3, r3, #2
 8001fc6:	2b00      	cmp	r3, #0
 8001fc8:	d0f9      	beq.n	8001fbe <MCAL_TIM4_CAP_Get_High+0x46>
	TIM3->SR=0;
 8001fca:	4b0a      	ldr	r3, [pc, #40]	; (8001ff4 <MCAL_TIM4_CAP_Get_High+0x7c>)
 8001fcc:	2200      	movs	r2, #0
 8001fce:	611a      	str	r2, [r3, #16]
	TIM3->CCER &=~(1<<1);
 8001fd0:	4b08      	ldr	r3, [pc, #32]	; (8001ff4 <MCAL_TIM4_CAP_Get_High+0x7c>)
 8001fd2:	6a1b      	ldr	r3, [r3, #32]
 8001fd4:	4a07      	ldr	r2, [pc, #28]	; (8001ff4 <MCAL_TIM4_CAP_Get_High+0x7c>)
 8001fd6:	f023 0302 	bic.w	r3, r3, #2
 8001fda:	6213      	str	r3, [r2, #32]
	dis=TIM3->CCR1;
 8001fdc:	4b05      	ldr	r3, [pc, #20]	; (8001ff4 <MCAL_TIM4_CAP_Get_High+0x7c>)
 8001fde:	6b5b      	ldr	r3, [r3, #52]	; 0x34
 8001fe0:	4618      	mov	r0, r3
 8001fe2:	f7fe fd99 	bl	8000b18 <__aeabi_ui2f>
 8001fe6:	4603      	mov	r3, r0
 8001fe8:	607b      	str	r3, [r7, #4]
	return dis ;
 8001fea:	687b      	ldr	r3, [r7, #4]
}
 8001fec:	4618      	mov	r0, r3
 8001fee:	3708      	adds	r7, #8
 8001ff0:	46bd      	mov	sp, r7
 8001ff2:	bd80      	pop	{r7, pc}
 8001ff4:	40000400 	.word	0x40000400

08001ff8 <MCAL_TIMx_Set_Compare_Value>:
* @param [in] 		-Chan: Chose channel 1,2,3 or 4 (TIMx contains 4 channel)
* @retval 			-none
* Note				-none
*/
void MCAL_TIMx_Set_Compare_Value( TIMx_TypeDef* TIMx  , uint16_t Compare_Value , channel Chan )
{
 8001ff8:	b480      	push	{r7}
 8001ffa:	b083      	sub	sp, #12
 8001ffc:	af00      	add	r7, sp, #0
 8001ffe:	6078      	str	r0, [r7, #4]
 8002000:	460b      	mov	r3, r1
 8002002:	807b      	strh	r3, [r7, #2]
 8002004:	4613      	mov	r3, r2
 8002006:	707b      	strb	r3, [r7, #1]

	switch(Chan)
 8002008:	787b      	ldrb	r3, [r7, #1]
 800200a:	2b03      	cmp	r3, #3
 800200c:	d81a      	bhi.n	8002044 <MCAL_TIMx_Set_Compare_Value+0x4c>
 800200e:	a201      	add	r2, pc, #4	; (adr r2, 8002014 <MCAL_TIMx_Set_Compare_Value+0x1c>)
 8002010:	f852 f023 	ldr.w	pc, [r2, r3, lsl #2]
 8002014:	08002025 	.word	0x08002025
 8002018:	0800202d 	.word	0x0800202d
 800201c:	08002035 	.word	0x08002035
 8002020:	0800203d 	.word	0x0800203d
	{
	case CH1 :
		{
			TIMx->CCR1 = Compare_Value;
 8002024:	887a      	ldrh	r2, [r7, #2]
 8002026:	687b      	ldr	r3, [r7, #4]
 8002028:	635a      	str	r2, [r3, #52]	; 0x34
			break;
 800202a:	e00b      	b.n	8002044 <MCAL_TIMx_Set_Compare_Value+0x4c>
		}
	case CH2 :
		{
			TIMx->CCR2 = Compare_Value;
 800202c:	887a      	ldrh	r2, [r7, #2]
 800202e:	687b      	ldr	r3, [r7, #4]
 8002030:	639a      	str	r2, [r3, #56]	; 0x38
			break;
 8002032:	e007      	b.n	8002044 <MCAL_TIMx_Set_Compare_Value+0x4c>
		}
	case CH3 :
		{
			TIMx->CCR3 = Compare_Value;
 8002034:	887a      	ldrh	r2, [r7, #2]
 8002036:	687b      	ldr	r3, [r7, #4]
 8002038:	63da      	str	r2, [r3, #60]	; 0x3c
			break;
 800203a:	e003      	b.n	8002044 <MCAL_TIMx_Set_Compare_Value+0x4c>
		}
	case CH4 :
		{
			TIMx->CCR4 = Compare_Value;
 800203c:	887a      	ldrh	r2, [r7, #2]
 800203e:	687b      	ldr	r3, [r7, #4]
 8002040:	641a      	str	r2, [r3, #64]	; 0x40
			break;
 8002042:	bf00      	nop
		}
	}
	TIMx->EGR |=1<<0;
 8002044:	687b      	ldr	r3, [r7, #4]
 8002046:	695b      	ldr	r3, [r3, #20]
 8002048:	f043 0201 	orr.w	r2, r3, #1
 800204c:	687b      	ldr	r3, [r7, #4]
 800204e:	615a      	str	r2, [r3, #20]
}
 8002050:	bf00      	nop
 8002052:	370c      	adds	r7, #12
 8002054:	46bd      	mov	sp, r7
 8002056:	bc80      	pop	{r7}
 8002058:	4770      	bx	lr
 800205a:	bf00      	nop

0800205c <USART1_IRQHandler>:
 *                      ISR Function Definitions
 *
 * ===============================================================
 */
void USART1_IRQHandler (void)
{
 800205c:	b580      	push	{r7, lr}
 800205e:	af00      	add	r7, sp, #0
	g_USART_Config[0]->P_IRQ_CALL() ;
 8002060:	4b02      	ldr	r3, [pc, #8]	; (800206c <USART1_IRQHandler+0x10>)
 8002062:	681b      	ldr	r3, [r3, #0]
 8002064:	68db      	ldr	r3, [r3, #12]
 8002066:	4798      	blx	r3
}
 8002068:	bf00      	nop
 800206a:	bd80      	pop	{r7, pc}
 800206c:	200000cc 	.word	0x200000cc

08002070 <USART2_IRQHandler>:

void USART2_IRQHandler (void)
{
 8002070:	b580      	push	{r7, lr}
 8002072:	af00      	add	r7, sp, #0
	g_USART_Config[1]->P_IRQ_CALL() ;
 8002074:	4b02      	ldr	r3, [pc, #8]	; (8002080 <USART2_IRQHandler+0x10>)
 8002076:	685b      	ldr	r3, [r3, #4]
 8002078:	68db      	ldr	r3, [r3, #12]
 800207a:	4798      	blx	r3
}
 800207c:	bf00      	nop
 800207e:	bd80      	pop	{r7, pc}
 8002080:	200000cc 	.word	0x200000cc

08002084 <USART3_IRQHandler>:

void USART3_IRQHandler (void)
{
 8002084:	b580      	push	{r7, lr}
 8002086:	af00      	add	r7, sp, #0
	g_USART_Config[2]->P_IRQ_CALL() ;
 8002088:	4b02      	ldr	r3, [pc, #8]	; (8002094 <USART3_IRQHandler+0x10>)
 800208a:	689b      	ldr	r3, [r3, #8]
 800208c:	68db      	ldr	r3, [r3, #12]
 800208e:	4798      	blx	r3
}
 8002090:	bf00      	nop
 8002092:	bd80      	pop	{r7, pc}
 8002094:	200000cc 	.word	0x200000cc

08002098 <__libc_init_array>:
 8002098:	b570      	push	{r4, r5, r6, lr}
 800209a:	2600      	movs	r6, #0
 800209c:	4d0c      	ldr	r5, [pc, #48]	; (80020d0 <__libc_init_array+0x38>)
 800209e:	4c0d      	ldr	r4, [pc, #52]	; (80020d4 <__libc_init_array+0x3c>)
 80020a0:	1b64      	subs	r4, r4, r5
 80020a2:	10a4      	asrs	r4, r4, #2
 80020a4:	42a6      	cmp	r6, r4
 80020a6:	d109      	bne.n	80020bc <__libc_init_array+0x24>
 80020a8:	f000 f81a 	bl	80020e0 <_init>
 80020ac:	2600      	movs	r6, #0
 80020ae:	4d0a      	ldr	r5, [pc, #40]	; (80020d8 <__libc_init_array+0x40>)
 80020b0:	4c0a      	ldr	r4, [pc, #40]	; (80020dc <__libc_init_array+0x44>)
 80020b2:	1b64      	subs	r4, r4, r5
 80020b4:	10a4      	asrs	r4, r4, #2
 80020b6:	42a6      	cmp	r6, r4
 80020b8:	d105      	bne.n	80020c6 <__libc_init_array+0x2e>
 80020ba:	bd70      	pop	{r4, r5, r6, pc}
 80020bc:	f855 3b04 	ldr.w	r3, [r5], #4
 80020c0:	4798      	blx	r3
 80020c2:	3601      	adds	r6, #1
 80020c4:	e7ee      	b.n	80020a4 <__libc_init_array+0xc>
 80020c6:	f855 3b04 	ldr.w	r3, [r5], #4
 80020ca:	4798      	blx	r3
 80020cc:	3601      	adds	r6, #1
 80020ce:	e7f2      	b.n	80020b6 <__libc_init_array+0x1e>
 80020d0:	080020f8 	.word	0x080020f8
 80020d4:	080020f8 	.word	0x080020f8
 80020d8:	080020f8 	.word	0x080020f8
 80020dc:	080020fc 	.word	0x080020fc

080020e0 <_init>:
 80020e0:	b5f8      	push	{r3, r4, r5, r6, r7, lr}
 80020e2:	bf00      	nop
 80020e4:	bcf8      	pop	{r3, r4, r5, r6, r7}
 80020e6:	bc08      	pop	{r3}
 80020e8:	469e      	mov	lr, r3
 80020ea:	4770      	bx	lr

080020ec <_fini>:
 80020ec:	b5f8      	push	{r3, r4, r5, r6, r7, lr}
 80020ee:	bf00      	nop
 80020f0:	bcf8      	pop	{r3, r4, r5, r6, r7}
 80020f2:	bc08      	pop	{r3}
 80020f4:	469e      	mov	lr, r3
 80020f6:	4770      	bx	lr
